(dp1
S'files'
p2
(dp3
S'sahara_db_migration_cli'
p4
(dp5
S'index'
p6
(dp7
S'html_filename'
p8
S'sahara_db_migration_cli.html'
p9
sS'name'
p10
S'sahara/db/migration/cli'
p11
sS'nums'
p12
ccopy_reg
_reconstructor
p13
(ccoverage.results
Numbers
p14
c__builtin__
object
p15
NtRp16
(dp17
S'n_files'
p18
I1
sS'n_branches'
p19
I8
sS'n_statements'
p20
I55
sS'n_excluded'
p21
I0
sS'n_partial_branches'
p22
I1
sS'n_missing'
p23
I5
sS'n_missing_branches'
p24
I1
sbssS'hash'
p25
S'\xc0`\xc1\xcd\xc8\x1b\x96\xc0\xee) \x1eb.\x95;'
p26
ssS'sahara_plugins_cdh_client_roles'
p27
(dp28
g6
(dp29
g8
S'sahara_plugins_cdh_client_roles.html'
p30
sg10
S'sahara/plugins/cdh/client/roles'
p31
sg12
g13
(g14
g15
NtRp32
(dp33
g18
I1
sg19
I2
sg20
I41
sg21
I0
sg22
I0
sg23
I21
sg24
I2
sbssg25
S'\xb8M\xb4\xcb\x9c?\xa1"^\x9b3\xf7\xb2\xfc\xf9\xa9'
p34
ssS'sahara_openstack___init__'
p35
(dp36
g6
(dp37
g8
S'sahara_openstack___init__.html'
p38
sg10
S'sahara/openstack/__init__'
p39
sg12
g13
(g14
g15
NtRp40
(dp41
g18
I1
sg19
I0
sg20
I0
sg21
I0
sg22
I0
sg23
I0
sg24
I0
sbssg25
S'\x19g\xdfM\x1a\x019\xaf\x1baIeR\xe5u\xa7'
p42
ssS'sahara_plugins_spark_plugin'
p43
(dp44
g6
(dp45
S'html_filename'
p46
S'sahara_plugins_spark_plugin.html'
p47
sS'name'
p48
S'sahara/plugins/spark/plugin'
p49
sS'nums'
p50
g13
(g14
g15
NtRp51
(dp52
g18
I1
sg19
I95
sg20
I280
sg21
I0
sg22
I2
sg23
I200
sg24
I85
sbssg25
S'H\x07\x18\xa4\x9d\xb6"\xb2K\xdd\x8d-\xd8\xbc9$'
p53
ssS'sahara_db_api'
p54
(dp55
g6
(dp56
g46
S'sahara_db_api.html'
p57
sg48
S'sahara/db/api'
p58
sg50
g13
(g14
g15
NtRp59
(dp60
g18
I1
sg19
I8
sg20
I140
sg21
I0
sg22
I0
sg23
I3
sg24
I0
sbssg25
S"\xd1\x8d\x02\xae\x13'!*\xf7\xa6C\xca\x17\xa0C&"
p61
ssS'sahara_plugins_vanilla_v1_2_1_config_helper'
p62
(dp63
g6
(dp64
g8
S'sahara_plugins_vanilla_v1_2_1_config_helper.html'
p65
sg10
S'sahara/plugins/vanilla/v1_2_1/config_helper'
p66
sg12
g13
(g14
g15
NtRp67
(dp68
g18
I1
sg19
I107
sg20
I230
sg21
I0
sg22
I5
sg23
I70
sg24
I31
sbssg25
S'z\x91!\xc6\x00 c\xac<T\xb1\xbdH\xd0\xb6\x7f'
p69
ssS'sahara_plugins_hdp_hadoopserver'
p70
(dp71
g6
(dp72
g46
S'sahara_plugins_hdp_hadoopserver.html'
p73
sg48
S'sahara/plugins/hdp/hadoopserver'
p74
sg50
g13
(g14
g15
NtRp75
(dp76
g18
I1
sg19
I14
sg20
I125
sg21
I0
sg22
I0
sg23
I80
sg24
I14
sbssg25
S'\x97\xb3g|\xe1\xed?\xf9b\x14\xd1*+\xc0\xb3\xe9'
p77
ssS'sahara_plugins_mapr_domain_configuration_file'
p78
(dp79
g6
(dp80
g8
S'sahara_plugins_mapr_domain_configuration_file.html'
p81
sg10
S'sahara/plugins/mapr/domain/configuration_file'
p82
sg12
g13
(g14
g15
NtRp83
(dp84
g18
I1
sg19
I26
sg20
I109
sg21
I0
sg22
I3
sg23
I12
sg24
I7
sbssg25
S'\x00\xf1V\xab\x0c\x90\xbd\x94\x97\x12\xbcP\\B\x1e\xad'
p85
ssS'sahara_plugins_cdh_v5_config_helper'
p86
(dp87
g6
(dp88
g46
S'sahara_plugins_cdh_v5_config_helper.html'
p89
sg48
S'sahara/plugins/cdh/v5/config_helper'
p90
sg50
g13
(g14
g15
NtRp91
(dp92
g18
I1
sg19
I4
sg20
I110
sg21
I0
sg22
I0
sg23
I47
sg24
I4
sbssg25
S'\xad\x9a+6\xf1\xfd\x19\xe9\xc5\xf2+G\xfb\xaf\xca\xb6'
p93
ssS'sahara_api_middleware___init__'
p94
(dp95
g6
(dp96
g8
S'sahara_api_middleware___init__.html'
p97
sg10
S'sahara/api/middleware/__init__'
p98
sg12
g13
(g14
g15
NtRp99
(dp100
g18
I1
sg19
I0
sg20
I0
sg21
I0
sg22
I0
sg23
I0
sg24
I0
sbssg25
S'\x19g\xdfM\x1a\x019\xaf\x1baIeR\xe5u\xa7'
p101
ssS'sahara_plugins_cdh_v5_validation'
p102
(dp103
g6
(dp104
g46
S'sahara_plugins_cdh_v5_validation.html'
p105
sg48
S'sahara/plugins/cdh/v5/validation'
p106
sg50
g13
(g14
g15
NtRp107
(dp108
g18
I1
sg19
I66
sg20
I97
sg21
I0
sg22
I0
sg23
I86
sg24
I66
sbssg25
S'+\xafxU\xfe/\xb1jx\x9b\xa5V\xe8.\xd3Z'
p109
ssS'sahara_plugins_hdp_versions_version_1_3_2_versionhandler'
p110
(dp111
g6
(dp112
g46
S'sahara_plugins_hdp_versions_version_1_3_2_versionhandler.html'
p113
sg48
S'sahara/plugins/hdp/versions/version_1_3_2/versionhandler'
p114
sg50
g13
(g14
g15
NtRp115
(dp116
g18
I1
sg19
I111
sg20
I359
sg21
I0
sg22
I7
sg23
I238
sg24
I100
sbssg25
S'\xb7\xe4E\xc5\x87\xe4I\xfb\xfd\x17\xe9x`\x19\xab\xb9'
p117
ssS'sahara_plugins_storm_run_scripts'
p118
(dp119
g6
(dp120
g8
S'sahara_plugins_storm_run_scripts.html'
p121
sg10
S'sahara/plugins/storm/run_scripts'
p122
sg12
g13
(g14
g15
NtRp123
(dp124
g18
I1
sg19
I0
sg20
I24
sg21
I0
sg22
I0
sg23
I14
sg24
I0
sbssg25
S'\x9eU\\C\x86\x8d\xa8.)\x138\x00\x99\xf6\xdeg'
p125
ssS'sahara_db_migration___init__'
p126
(dp127
g6
(dp128
g8
S'sahara_db_migration___init__.html'
p129
sg10
S'sahara/db/migration/__init__'
p130
sg12
g13
(g14
g15
NtRp131
(dp132
g18
I1
sg19
I0
sg20
I0
sg21
I0
sg22
I0
sg23
I0
sg24
I0
sbssg25
S'\x19g\xdfM\x1a\x019\xaf\x1baIeR\xe5u\xa7'
p133
ssS'sahara_openstack_commons'
p134
(dp135
g6
(dp136
g8
S'sahara_openstack_commons.html'
p137
sg10
S'sahara/openstack/commons'
p138
sg12
g13
(g14
g15
NtRp139
(dp140
g18
I1
sg19
I13
sg20
I22
sg21
I0
sg22
I0
sg23
I20
sg24
I13
sbssg25
S'\x1b\xde1\x1b\x9f\xc0\x0c\xe6\xb0\xf1ow\n\x1bw\x1f'
p141
ssS'sahara_plugins_mapr_domain___init__'
p142
(dp143
g6
(dp144
g8
S'sahara_plugins_mapr_domain___init__.html'
p145
sg10
S'sahara/plugins/mapr/domain/__init__'
p146
sg12
g13
(g14
g15
NtRp147
(dp148
g18
I1
sg19
I0
sg20
I0
sg21
I0
sg22
I0
sg23
I0
sg24
I0
sbssg25
S'\x19g\xdfM\x1a\x019\xaf\x1baIeR\xe5u\xa7'
p149
ssS'sahara_plugins_mapr_versions___init__'
p150
(dp151
g6
(dp152
g8
S'sahara_plugins_mapr_versions___init__.html'
p153
sg10
S'sahara/plugins/mapr/versions/__init__'
p154
sg12
g13
(g14
g15
NtRp155
(dp156
g18
I1
sg19
I0
sg20
I0
sg21
I0
sg22
I0
sg23
I0
sg24
I0
sbssg25
S'\x19g\xdfM\x1a\x019\xaf\x1baIeR\xe5u\xa7'
p157
ssS'sahara_utils_cluster_progress_ops'
p158
(dp159
g6
(dp160
g46
S'sahara_utils_cluster_progress_ops.html'
p161
sg48
S'sahara/utils/cluster_progress_ops'
p162
sg50
g13
(g14
g15
NtRp163
(dp164
g18
I1
sg19
I42
sg20
I102
sg21
I0
sg22
I8
sg23
I25
sg24
I16
sbssg25
S'K/p\x8c\xd4\xa0\x1f\xa9%H/T\xb6a\xee\xb0'
p165
ssS'sahara_service_validations_cluster_templates'
p166
(dp167
g6
(dp168
g8
S'sahara_service_validations_cluster_templates.html'
p169
sg10
S'sahara/service/validations/cluster_templates'
p170
sg12
g13
(g14
g15
NtRp171
(dp172
g18
I1
sg19
I22
sg20
I36
sg21
I0
sg22
I4
sg23
I11
sg24
I10
sbssg25
S'\xd1\xffwS\xa3u"_/\xc4yKr\xf5\xa40'
p173
ssS'sahara_plugins_vanilla_v1_2_1___init__'
p174
(dp175
g6
(dp176
g8
S'sahara_plugins_vanilla_v1_2_1___init__.html'
p177
sg10
S'sahara/plugins/vanilla/v1_2_1/__init__'
p178
sg12
g13
(g14
g15
NtRp179
(dp180
g18
I1
sg19
I0
sg20
I0
sg21
I0
sg22
I0
sg23
I0
sg24
I0
sbssg25
S'\x19g\xdfM\x1a\x019\xaf\x1baIeR\xe5u\xa7'
p181
ssS'sahara_plugins_mapr_util___init__'
p182
(dp183
g6
(dp184
g8
S'sahara_plugins_mapr_util___init__.html'
p185
sg10
S'sahara/plugins/mapr/util/__init__'
p186
sg12
g13
(g14
g15
NtRp187
(dp188
g18
I1
sg19
I0
sg20
I0
sg21
I0
sg22
I0
sg23
I0
sg24
I0
sbssg25
S'\x19g\xdfM\x1a\x019\xaf\x1baIeR\xe5u\xa7'
p189
ssS'sahara_service_validations_edp_job'
p190
(dp191
g6
(dp192
g46
S'sahara_service_validations_edp_job.html'
p193
sg48
S'sahara/service/validations/edp/job'
p194
sg50
g13
(g14
g15
NtRp195
(dp196
g18
I1
sg19
I18
sg20
I28
sg21
I0
sg22
I0
sg23
I0
sg24
I0
sbssg25
S'\xeeO,\xf0c1\x84\x85\xd6\x11D\xf5sHs\x91'
p197
ssS'sahara_service___init__'
p198
(dp199
g6
(dp200
g8
S'sahara_service___init__.html'
p201
sg10
S'sahara/service/__init__'
p202
sg12
g13
(g14
g15
NtRp203
(dp204
g18
I1
sg19
I0
sg20
I0
sg21
I0
sg22
I0
sg23
I0
sg24
I0
sbssg25
S'\x19g\xdfM\x1a\x019\xaf\x1baIeR\xe5u\xa7'
p205
ssS'sahara_utils_openstack_nova'
p206
(dp207
g6
(dp208
g46
S'sahara_utils_openstack_nova.html'
p209
sg48
S'sahara/utils/openstack/nova'
p210
sg50
g13
(g14
g15
NtRp211
(dp212
g18
I1
sg19
I0
sg20
I29
sg21
I0
sg22
I0
sg23
I2
sg24
I0
sbssg25
S'\xb8\xdc"/\xd0*\xafB\x93%\xe2\xe9;\xfd\x13E'
p213
ssS'sahara_plugins_mapr_abstract_configurer'
p214
(dp215
g6
(dp216
g8
S'sahara_plugins_mapr_abstract_configurer.html'
p217
sg10
S'sahara/plugins/mapr/abstract/configurer'
p218
sg12
g13
(g14
g15
NtRp219
(dp220
g18
I1
sg19
I2
sg20
I10
sg21
I0
sg22
I0
sg23
I2
sg24
I0
sbssg25
S'\xc7\xd5\xc2\x9aWK\xb8\x1e\xee\x1aa\x98{\x0b!~'
p221
ssS'sahara_plugins_mapr_services_sqoop___init__'
p222
(dp223
g6
(dp224
g8
S'sahara_plugins_mapr_services_sqoop___init__.html'
p225
sg10
S'sahara/plugins/mapr/services/sqoop/__init__'
p226
sg12
g13
(g14
g15
NtRp227
(dp228
g18
I1
sg19
I0
sg20
I0
sg21
I0
sg22
I0
sg23
I0
sg24
I0
sbssg25
S'\x19g\xdfM\x1a\x019\xaf\x1baIeR\xe5u\xa7'
p229
ssS'sahara_plugins_vanilla_edp_engine'
p230
(dp231
g6
(dp232
g8
S'sahara_plugins_vanilla_edp_engine.html'
p233
sg10
S'sahara/plugins/vanilla/edp_engine'
p234
sg12
g13
(g14
g15
NtRp235
(dp236
g18
I1
sg19
I2
sg20
I18
sg21
I0
sg22
I0
sg23
I3
sg24
I0
sbssg25
S'l(\xc5\x17\xeb"\x08\xab\xf9\x13p\x1c$\x94\x1a\xf8'
p237
ssS'sahara_cli_sahara_all'
p238
(dp239
g6
(dp240
g8
S'sahara_cli_sahara_all.html'
p241
sg10
S'sahara/cli/sahara_all'
p242
sg12
g13
(g14
g15
NtRp243
(dp244
g18
I1
sg19
I2
sg20
I19
sg21
I0
sg22
I0
sg23
I19
sg24
I2
sbssg25
S'\xbe\x02N\x1d\xab\x89\t\xaf\xf7b\x95\xb7\xf6\x8c\xab^'
p245
ssS'sahara_service_validations_edp_data_source'
p246
(dp247
g6
(dp248
g8
S'sahara_service_validations_edp_data_source.html'
p249
sg10
S'sahara/service/validations/edp/data_source'
p250
sg12
g13
(g14
g15
NtRp251
(dp252
g18
I1
sg19
I36
sg20
I46
sg21
I0
sg22
I4
sg23
I4
sg24
I4
sbssg25
S'mC\xae\x9dAn\x96\x83\x0c\xf5\xbc\x00\xda\x0c\x08\xf0'
p253
ssS'sahara_service_edp_binary_retrievers_internal_swift'
p254
(dp255
g6
(dp256
g8
S'sahara_service_edp_binary_retrievers_internal_swift.html'
p257
sg10
S'sahara/service/edp/binary_retrievers/internal_swift'
p258
sg12
g13
(g14
g15
NtRp259
(dp260
g18
I1
sg19
I10
sg20
I47
sg21
I0
sg22
I1
sg23
I2
sg24
I1
sbssg25
S'9l\xbc#7\xdet\xd6o\x17@\x80\xe4\x9e\xe2\xfa'
p261
ssS'sahara_plugins_cdh_client_role_config_groups'
p262
(dp263
g6
(dp264
g8
S'sahara_plugins_cdh_client_role_config_groups.html'
p265
sg10
S'sahara/plugins/cdh/client/role_config_groups'
p266
sg12
g13
(g14
g15
NtRp267
(dp268
g18
I1
sg19
I2
sg20
I30
sg21
I0
sg22
I0
sg23
I16
sg24
I2
sbssg25
S'\x17E{6\x15R\xa0\x8f\xef]\xb9\x85\x93T\xf6\xf3'
p269
ssS'sahara_plugins_mapr_base_base_cluster_validator'
p270
(dp271
g6
(dp272
g8
S'sahara_plugins_mapr_base_base_cluster_validator.html'
p273
sg10
S'sahara/plugins/mapr/base/base_cluster_validator'
p274
sg12
g13
(g14
g15
NtRp275
(dp276
g18
I1
sg19
I6
sg20
I17
sg21
I0
sg22
I0
sg23
I11
sg24
I6
sbssg25
S'o\xf5\xeaR r\xaa\xcc\xd1\x17\xee\xbc\xe2\x96\xb4\x9e'
p277
ssS'sahara_plugins_storm___init__'
p278
(dp279
g6
(dp280
g8
S'sahara_plugins_storm___init__.html'
p281
sg10
S'sahara/plugins/storm/__init__'
p282
sg12
g13
(g14
g15
NtRp283
(dp284
g18
I1
sg19
I0
sg20
I0
sg21
I0
sg22
I0
sg23
I0
sg24
I0
sbssg25
S'\x19g\xdfM\x1a\x019\xaf\x1baIeR\xe5u\xa7'
p285
ssS'sahara_cli_sahara_subprocess'
p286
(dp287
g6
(dp288
g8
S'sahara_cli_sahara_subprocess.html'
p289
sg10
S'sahara/cli/sahara_subprocess'
p290
sg12
g13
(g14
g15
NtRp291
(dp292
g18
I1
sg19
I2
sg20
I17
sg21
I0
sg22
I0
sg23
I17
sg24
I0
sbssg25
S'}\x9d\xd9\xbf~}R\x0e\xa2\xe8\xb5^\xe1\xdeI%'
p293
ssS'sahara_service_edp_hdfs_helper'
p294
(dp295
g6
(dp296
g8
S'sahara_service_edp_hdfs_helper.html'
p297
sg10
S'sahara/service/edp/hdfs_helper'
p298
sg12
g13
(g14
g15
NtRp299
(dp300
g18
I1
sg19
I18
sg20
I51
sg21
I0
sg22
I0
sg23
I29
sg24
I18
sbssg25
S'\x9f\x1c\x14!\xef\xd7\xf9\x7fw\xa8y\xa8\xe2\x95\x89\x1d'
p301
ssS'sahara_service_validations_edp_base'
p302
(dp303
g6
(dp304
g8
S'sahara_service_validations_edp_base.html'
p305
sg10
S'sahara/service/validations/edp/base'
p306
sg12
g13
(g14
g15
NtRp307
(dp308
g18
I1
sg19
I10
sg20
I25
sg21
I0
sg22
I1
sg23
I7
sg24
I7
sbssg25
S'\xb8\x00\xe3\xbd\xd9_\x9bdO\x8e5]ao\x91j'
p309
ssS'sahara_utils_openstack_neutron'
p310
(dp311
g6
(dp312
g8
S'sahara_utils_openstack_neutron.html'
p313
sg10
S'sahara/utils/openstack/neutron'
p314
sg12
g13
(g14
g15
NtRp315
(dp316
g18
I1
sg19
I12
sg20
I48
sg21
I0
sg22
I4
sg23
I13
sg24
I6
sbssg25
S'\x01\r\x87\x81\xaaG\xd4\x8f\x03\xf5\x16\xd8~\x92\xc0\x01'
p317
ssS'sahara_plugins_mapr___init__'
p318
(dp319
g6
(dp320
g8
S'sahara_plugins_mapr___init__.html'
p321
sg10
S'sahara/plugins/mapr/__init__'
p322
sg12
g13
(g14
g15
NtRp323
(dp324
g18
I1
sg19
I0
sg20
I0
sg21
I0
sg22
I0
sg23
I0
sg24
I0
sbssg25
S'\x19g\xdfM\x1a\x019\xaf\x1baIeR\xe5u\xa7'
p325
ssS'sahara_service_engine'
p326
(dp327
g6
(dp328
g46
S'sahara_service_engine.html'
p329
sg48
S'sahara/service/engine'
p330
sg50
g13
(g14
g15
NtRp331
(dp332
g18
I1
sg19
I30
sg20
I104
sg21
I0
sg22
I6
sg23
I45
sg24
I18
sbssg25
S'n\xf2}\xf37r.l\xc4\xd7t\x1b\x80\xc2EA'
p333
ssS'sahara_plugins_fake___init__'
p334
(dp335
g6
(dp336
g8
S'sahara_plugins_fake___init__.html'
p337
sg10
S'sahara/plugins/fake/__init__'
p338
sg12
g13
(g14
g15
NtRp339
(dp340
g18
I1
sg19
I0
sg20
I0
sg21
I0
sg22
I0
sg23
I0
sg24
I0
sbssg25
S'\x19g\xdfM\x1a\x019\xaf\x1baIeR\xe5u\xa7'
p341
ssS'sahara_service_edp_oozie_workflow_creator_workflow_factory'
p342
(dp343
g6
(dp344
g46
S'sahara_service_edp_oozie_workflow_creator_workflow_factory.html'
p345
sg48
S'sahara/service/edp/oozie/workflow_creator/workflow_factory'
p346
sg50
g13
(g14
g15
NtRp347
(dp348
g18
I1
sg19
I56
sg20
I186
sg21
I0
sg22
I11
sg23
I5
sg24
I11
sbssg25
S'\xfd\x9eB\x99u\xc9pnfV\xa1B\x88\xe9\x01v'
p349
ssS'sahara_plugins_mapr_services_mysql___init__'
p350
(dp351
g6
(dp352
g8
S'sahara_plugins_mapr_services_mysql___init__.html'
p353
sg10
S'sahara/plugins/mapr/services/mysql/__init__'
p354
sg12
g13
(g14
g15
NtRp355
(dp356
g18
I1
sg19
I0
sg20
I0
sg21
I0
sg22
I0
sg23
I0
sg24
I0
sbssg25
S'\x19g\xdfM\x1a\x019\xaf\x1baIeR\xe5u\xa7'
p357
ssS'sahara_api___init__'
p358
(dp359
g6
(dp360
g8
S'sahara_api___init__.html'
p361
sg10
S'sahara/api/__init__'
p362
sg12
g13
(g14
g15
NtRp363
(dp364
g18
I1
sg19
I0
sg20
I0
sg21
I0
sg22
I0
sg23
I0
sg24
I0
sbssg25
S'\x19g\xdfM\x1a\x019\xaf\x1baIeR\xe5u\xa7'
p365
ssS'sahara_utils_openstack_base'
p366
(dp367
g6
(dp368
g46
S'sahara_utils_openstack_base.html'
p369
sg48
S'sahara/utils/openstack/base'
p370
sg50
g13
(g14
g15
NtRp371
(dp372
g18
I1
sg19
I24
sg20
I45
sg21
I0
sg22
I5
sg23
I8
sg24
I9
sbssg25
S'\xd1q#NO\xdc\x80\xc48\xb7\x93l\xcb\xf1\x97\xd8'
p373
ssS'sahara_api_middleware_log_exchange'
p374
(dp375
g6
(dp376
g8
S'sahara_api_middleware_log_exchange.html'
p377
sg10
S'sahara/api/middleware/log_exchange'
p378
sg12
g13
(g14
g15
NtRp379
(dp380
g18
I1
sg19
I10
sg20
I30
sg21
I0
sg22
I0
sg23
I22
sg24
I10
sbssg25
S'<\x96\x96\xbcGW\x94?\x8a\x82[\x96yA-\x9b'
p381
ssS'sahara_plugins_hdp_confighints_helper'
p382
(dp383
S'index'
p384
(dp385
g46
S'sahara_plugins_hdp_confighints_helper.html'
p386
sg48
S'sahara/plugins/hdp/confighints_helper'
p387
sg50
g13
(g14
g15
NtRp388
(dp389
g18
I1
sg19
I6
sg20
I29
sg21
I0
sg22
I0
sg23
I3
sg24
I0
sbssS'hash'
p390
S'jn\xdcQ\xc2H\xf4"\x04\x9e\xb4\x99\xac\x99\xf8f'
p391
ssS'sahara_plugins_mapr_services_hbase_hbase'
p392
(dp393
g6
(dp394
g8
S'sahara_plugins_mapr_services_hbase_hbase.html'
p395
sg10
S'sahara/plugins/mapr/services/hbase/hbase'
p396
sg12
g13
(g14
g15
NtRp397
(dp398
g18
I1
sg19
I6
sg20
I35
sg21
I0
sg22
I0
sg23
I6
sg24
I2
sbssg25
S']\x038\x84\x959F\x81\xd4]tH\x84I\xf5\xce'
p399
ssS'sahara_plugins_mapr_services_oozie_oozie'
p400
(dp401
g6
(dp402
g46
S'sahara_plugins_mapr_services_oozie_oozie.html'
p403
sg48
S'sahara/plugins/mapr/services/oozie/oozie'
p404
sg50
g13
(g14
g15
NtRp405
(dp406
g18
I1
sg19
I6
sg20
I77
sg21
I0
sg22
I0
sg23
I46
sg24
I4
sbssg25
S'\x89w\x04\x17\xf3x\x18\xecc\x10\xa5E\xed\xb4ax'
p407
ssS'sahara_plugins_cdh_client_services'
p408
(dp409
g6
(dp410
g46
S'sahara_plugins_cdh_client_services.html'
p411
sg48
S'sahara/plugins/cdh/client/services'
p412
sg50
g13
(g14
g15
NtRp413
(dp414
g18
I1
sg19
I20
sg20
I116
sg21
I0
sg22
I0
sg23
I67
sg24
I20
sbssg25
S'e=9dM\xa5oB\xa4\x96\xd6\xb4\nd\x11\xfd'
p415
ssS'sahara_plugins_cdh_exceptions'
p416
(dp417
g6
(dp418
g8
S'sahara_plugins_cdh_exceptions.html'
p419
sg10
S'sahara/plugins/cdh/exceptions'
p420
sg12
g13
(g14
g15
NtRp421
(dp422
g18
I1
sg19
I0
sg20
I26
sg21
I0
sg22
I0
sg23
I12
sg24
I0
sbssg25
S'*\x90\xd9l\xe1\x8cr\xc2=\xf5v\x86\xd7\x1ftm'
p423
ssS'sahara_service_periodic'
p424
(dp425
g6
(dp426
g46
S'sahara_service_periodic.html'
p427
sg48
S'sahara/service/periodic'
p428
sg50
g13
(g14
g15
NtRp429
(dp430
g18
I1
sg19
I31
sg20
I97
sg21
I0
sg22
I3
sg23
I6
sg24
I5
sbssg25
S'\x10m>\x91.r~\xb0\xbe\xbeH\xcb4\xd2q\x1e'
p431
ssS'sahara_plugins_cdh_client_clusters'
p432
(dp433
g6
(dp434
g8
S'sahara_plugins_cdh_client_clusters.html'
p435
sg10
S'sahara/plugins/cdh/client/clusters'
p436
sg12
g13
(g14
g15
NtRp437
(dp438
g18
I1
sg19
I4
sg20
I41
sg21
I0
sg22
I0
sg23
I21
sg24
I4
sbssg25
S'V\xba\xcf\xbc\xc6\xbdz\xc2\x965\xef|\x1f\x9e\x7fm'
p439
ssS'sahara_plugins_mapr_util_validation_utils'
p440
(dp441
g6
(dp442
g8
S'sahara_plugins_mapr_util_validation_utils.html'
p443
sg10
S'sahara/plugins/mapr/util/validation_utils'
p444
sg12
g13
(g14
g15
NtRp445
(dp446
g18
I1
sg19
I32
sg20
I113
sg21
I0
sg22
I0
sg23
I66
sg24
I32
sbssg25
S':]\x06#\xf0\xcc\x973\x01\xff_\x14.\xdd\xaf\xe8'
p447
ssS'sahara_plugins_hdp_versions___init__'
p448
(dp449
g6
(dp450
g8
S'sahara_plugins_hdp_versions___init__.html'
p451
sg10
S'sahara/plugins/hdp/versions/__init__'
p452
sg12
g13
(g14
g15
NtRp453
(dp454
g18
I1
sg19
I0
sg20
I0
sg21
I0
sg22
I0
sg23
I0
sg24
I0
sbssg25
S'\x19g\xdfM\x1a\x019\xaf\x1baIeR\xe5u\xa7'
p455
ssS'sahara_plugins_spark_run_scripts'
p456
(dp457
g6
(dp458
g8
S'sahara_plugins_spark_run_scripts.html'
p459
sg10
S'sahara/plugins/spark/run_scripts'
p460
sg12
g13
(g14
g15
NtRp461
(dp462
g18
I1
sg19
I6
sg20
I20
sg21
I0
sg22
I0
sg23
I11
sg24
I6
sbssg25
S'7w\xfe\x11H:\x1b\x84>x1iE3\\\x8a'
p463
ssS'sahara_plugins_mapr_services_yarn___init__'
p464
(dp465
g6
(dp466
g8
S'sahara_plugins_mapr_services_yarn___init__.html'
p467
sg10
S'sahara/plugins/mapr/services/yarn/__init__'
p468
sg12
g13
(g14
g15
NtRp469
(dp470
g18
I1
sg19
I0
sg20
I0
sg21
I0
sg22
I0
sg23
I0
sg24
I0
sbssg25
S'\x19g\xdfM\x1a\x019\xaf\x1baIeR\xe5u\xa7'
p471
ssS'sahara_db_sqlalchemy_model_base'
p472
(dp473
g6
(dp474
g46
S'sahara_db_sqlalchemy_model_base.html'
p475
sg48
S'sahara/db/sqlalchemy/model_base'
p476
sg50
g13
(g14
g15
NtRp477
(dp478
g18
I1
sg19
I8
sg20
I21
sg21
I0
sg22
I0
sg23
I0
sg24
I0
sbssg25
S'\xc7\xb0Q3\x0b\xfc\xc3vrx\xb3\xda\xcc\xaf/*'
p479
ssS'sahara_service_edp_storm_engine'
p480
(dp481
g384
(dp482
g46
S'sahara_service_edp_storm_engine.html'
p483
sg48
S'sahara/service/edp/storm/engine'
p484
sg50
g13
(g14
g15
NtRp485
(dp486
g18
I1
sg19
I25
sg20
I125
sg21
I0
sg22
I5
sg23
I7
sg24
I5
sbssg390
S'\x9d\xadR2T\xb0\xbe\xeb\xd7g7\xeb\x87\xe0\xc4)'
p487
ssS'sahara_db_templates_cli'
p488
(dp489
g6
(dp490
g8
S'sahara_db_templates_cli.html'
p491
sg10
S'sahara/db/templates/cli'
p492
sg12
g13
(g14
g15
NtRp493
(dp494
g18
I1
sg19
I20
sg20
I82
sg21
I0
sg22
I0
sg23
I82
sg24
I20
sbssg25
S'\x92\xbf\xb0qa\xb4\x8ef\x84\x0b)\xc0\xc0\xd1Z\x83'
p495
ssS'sahara_plugins_vanilla_hadoop2_run_scripts'
p496
(dp497
g6
(dp498
g46
S'sahara_plugins_vanilla_hadoop2_run_scripts.html'
p499
sg48
S'sahara/plugins/vanilla/hadoop2/run_scripts'
p500
sg50
g13
(g14
g15
NtRp501
(dp502
g18
I1
sg19
I18
sg20
I108
sg21
I0
sg22
I0
sg23
I76
sg24
I18
sbssg25
S'\x1e5\xef\x14\xe6\xfd#\x0e\xaf\x85\x9e>{\x93\xcd\x13'
p503
ssS'sahara_plugins_vanilla_v2_6_0_edp_engine'
p504
(dp505
g384
(dp506
g46
S'sahara_plugins_vanilla_v2_6_0_edp_engine.html'
p507
sg48
S'sahara/plugins/vanilla/v2_6_0/edp_engine'
p508
sg50
g13
(g14
g15
NtRp509
(dp510
g18
I1
sg19
I6
sg20
I12
sg21
I0
sg22
I0
sg23
I0
sg24
I0
sbssg390
S'\x9c\xb3\x9e\x8fQ\xda\xec{\xae\xe7\x9b\xda\x8c\xa5\x91\x03'
p511
ssS'sahara_plugins_vanilla_abstractversionhandler'
p512
(dp513
g6
(dp514
g46
S'sahara_plugins_vanilla_abstractversionhandler.html'
p515
sg48
S'sahara/plugins/vanilla/abstractversionhandler'
p516
sg50
g13
(g14
g15
NtRp517
(dp518
g18
I1
sg19
I2
sg20
I30
sg21
I0
sg22
I0
sg23
I12
sg24
I0
sbssg25
S'\xf5\xfe vL\x9b\xfeC\xef\xdb_\xe3\xdcm="'
p519
ssS'sahara_plugins_provisioning'
p520
(dp521
g6
(dp522
g46
S'sahara_plugins_provisioning.html'
p523
sg48
S'sahara/plugins/provisioning'
p524
sg50
g13
(g14
g15
NtRp525
(dp526
g18
I1
sg19
I10
sg20
I97
sg21
I0
sg22
I0
sg23
I23
sg24
I0
sbssg25
S'v\xc1\x10B+Ig\xa3f\x0b!E-\xab\xd9\xc3'
p527
ssS'sahara_plugins_vanilla___init__'
p528
(dp529
g6
(dp530
g8
S'sahara_plugins_vanilla___init__.html'
p531
sg10
S'sahara/plugins/vanilla/__init__'
p532
sg12
g13
(g14
g15
NtRp533
(dp534
g18
I1
sg19
I0
sg20
I0
sg21
I0
sg22
I0
sg23
I0
sg24
I0
sbssg25
S'\x19g\xdfM\x1a\x019\xaf\x1baIeR\xe5u\xa7'
p535
ssS'sahara_plugins_mapr_services_mahout_mahout'
p536
(dp537
g6
(dp538
g8
S'sahara_plugins_mapr_services_mahout_mahout.html'
p539
sg10
S'sahara/plugins/mapr/services/mahout/mahout'
p540
sg12
g13
(g14
g15
NtRp541
(dp542
g18
I1
sg19
I2
sg20
I14
sg21
I0
sg22
I0
sg23
I0
sg24
I0
sbssg25
S'\x93\x10\xa5U\xab\x889\xea\xff\\GT\xc3\x0b\xca>'
p543
ssS'sahara_plugins_cdh_client_resource'
p544
(dp545
g6
(dp546
g46
S'sahara_plugins_cdh_client_resource.html'
p547
sg48
S'sahara/plugins/cdh/client/resource'
p548
sg50
g13
(g14
g15
NtRp549
(dp550
g18
I1
sg19
I15
sg20
I63
sg21
I0
sg22
I0
sg23
I41
sg24
I15
sbssg25
S'\xd8D\xea\\[\xfc\xb1\xec\xd8!\x0c\xc6\xbf\x0c\xa3\x1d'
p551
ssS'sahara_utils_patches'
p552
(dp553
g6
(dp554
g8
S'sahara_utils_patches.html'
p555
sg10
S'sahara/utils/patches'
p556
sg12
g13
(g14
g15
NtRp557
(dp558
g18
I1
sg19
I11
sg20
I37
sg21
I0
sg22
I1
sg23
I28
sg24
I10
sbssg25
S'Cl\xdc\x87\xff\xe1_\x05~jp\x88\xde\xcc,='
p559
ssS'sahara_service_edp_oozie_engine'
p560
(dp561
g6
(dp562
g8
S'sahara_service_edp_oozie_engine.html'
p563
sg10
S'sahara/service/edp/oozie/engine'
p564
sg12
g13
(g14
g15
NtRp565
(dp566
g18
I1
sg19
I43
sg20
I154
sg21
I0
sg22
I5
sg23
I53
sg24
I19
sbssg25
S'!l\x02\x9f\xfc\xe5\xc0\xfa\x1c\xd6\x8a6;5\xe4\x7f'
p567
ssS'sahara_api_base'
p568
(dp569
g6
(dp570
g8
S'sahara_api_base.html'
p571
sg10
S'sahara/api/base'
p572
sg12
g13
(g14
g15
NtRp573
(dp574
g18
I1
sg19
I0
sg20
I4
sg21
I0
sg22
I0
sg23
I4
sg24
I0
sbssg25
S'\x9f\x99S7\x94\xeb[u\x90U\x17"I\xb5cX'
p575
ssS'sahara_utils_procutils'
p576
(dp577
g6
(dp578
g8
S'sahara_utils_procutils.html'
p579
sg10
S'sahara/utils/procutils'
p580
sg12
g13
(g14
g15
NtRp581
(dp582
g18
I1
sg19
I6
sg20
I48
sg21
I0
sg22
I0
sg23
I32
sg24
I6
sbssg25
S'\xae\x83\xc3AX\x1f\xc3\ru\x96cU\xa3KP\x93'
p583
ssS'sahara_plugins_hdp_versions_version_2_0_6_edp_engine'
p584
(dp585
g6
(dp586
g46
S'sahara_plugins_hdp_versions_version_2_0_6_edp_engine.html'
p587
sg48
S'sahara/plugins/hdp/versions/version_2_0_6/edp_engine'
p588
sg50
g13
(g14
g15
NtRp589
(dp590
g18
I1
sg19
I6
sg20
I17
sg21
I0
sg22
I0
sg23
I1
sg24
I0
sbssg25
S'3\x95K\xcd\xe5\xe6)%\xba\x85IN1\xfc\x0e`'
p591
ssS'sahara_plugins_cdh_v5_plugin_utils'
p592
(dp593
g6
(dp594
g8
S'sahara_plugins_cdh_v5_plugin_utils.html'
p595
sg10
S'sahara/plugins/cdh/v5/plugin_utils'
p596
sg12
g13
(g14
g15
NtRp597
(dp598
g18
I1
sg19
I0
sg20
I23
sg21
I0
sg22
I0
sg23
I13
sg24
I0
sbssg25
S'^s\xfe<<\xf2\x8bd\x9b\r\xfd\xe8@8v\x0c'
p599
ssS'sahara_utils_openstack_heat'
p600
(dp601
g6
(dp602
g8
S'sahara_utils_openstack_heat.html'
p603
sg10
S'sahara/utils/openstack/heat'
p604
sg12
g13
(g14
g15
NtRp605
(dp606
g18
I1
sg19
I8
sg20
I27
sg21
I0
sg22
I0
sg23
I8
sg24
I4
sbssg25
S'k\xcc\x9e\x15"qs\xe6\x08\xc0\tq\xf2F+\xa2'
p607
ssS'sahara_utils_crypto'
p608
(dp609
g6
(dp610
g8
S'sahara_utils_crypto.html'
p611
sg10
S'sahara/utils/crypto'
p612
sg12
g13
(g14
g15
NtRp613
(dp614
g18
I1
sg19
I6
sg20
I24
sg21
I0
sg22
I3
sg23
I2
sg24
I3
sbssg25
S"'\x87\x1f\xbdo\xa5\\\x1a1\xa9\xc8\x7f\x077,8"
p615
ssS'sahara___init__'
p616
(dp617
g6
(dp618
g8
S'sahara___init__.html'
p619
sg10
S'sahara/__init__'
p620
sg12
g13
(g14
g15
NtRp621
(dp622
g18
I1
sg19
I0
sg20
I0
sg21
I0
sg22
I0
sg23
I0
sg24
I0
sbssg25
S'\x19g\xdfM\x1a\x019\xaf\x1baIeR\xe5u\xa7'
p623
ssS'sahara_utils_configs'
p624
(dp625
g6
(dp626
g8
S'sahara_utils_configs.html'
p627
sg10
S'sahara/utils/configs'
p628
sg12
g13
(g14
g15
NtRp629
(dp630
g18
I1
sg19
I8
sg20
I9
sg21
I0
sg22
I0
sg23
I0
sg24
I0
sbssg25
S'\xcb\x0fd\x95\xbe{j\x83w\xde\x98xmY\xd4('
p631
ssS'sahara_db_sqlalchemy_api'
p632
(dp633
g6
(dp634
g46
S'sahara_db_sqlalchemy_api.html'
p635
sg48
S'sahara/db/sqlalchemy/api'
p636
sg50
g13
(g14
g15
NtRp637
(dp638
g18
I1
sg19
I143
sg20
I558
sg21
I0
sg22
I20
sg23
I33
sg24
I22
sbssg25
S'\xbco\xd6\xb0\x86\xc8\xce_\xf4\x92|^\xa7\xe9\x80\xe8'
p639
ssS'sahara_db_sqlalchemy_types'
p640
(dp641
g6
(dp642
g46
S'sahara_db_sqlalchemy_types.html'
p643
sg48
S'sahara/db/sqlalchemy/types'
p644
sg50
g13
(g14
g15
NtRp645
(dp646
g18
I1
sg19
I12
sg20
I57
sg21
I0
sg22
I0
sg23
I0
sg24
I0
sbssg25
S'\xb6\xeb\x00:d\xb1\xe6-\xb0\x93\xc5c\x9b\x0bL\x16'
p647
ssS'sahara_service_validations_node_group_template_schema'
p648
(dp649
g6
(dp650
g8
S'sahara_service_validations_node_group_template_schema.html'
p651
sg10
S'sahara/service/validations/node_group_template_schema'
p652
sg12
g13
(g14
g15
NtRp653
(dp654
g18
I1
sg19
I0
sg20
I4
sg21
I0
sg22
I0
sg23
I0
sg24
I0
sbssg25
S'\x93\xf3\x85\xf9avu\x8a\x9eE\xd2o(\x8a\xc3\xbb'
p655
ssS'sahara_plugins_cdh_v5_3_0_db_helper'
p656
(dp657
g6
(dp658
g46
S'sahara_plugins_cdh_v5_3_0_db_helper.html'
p659
sg48
S'sahara/plugins/cdh/v5_3_0/db_helper'
p660
sg50
g13
(g14
g15
NtRp661
(dp662
g18
I1
sg19
I0
sg20
I16
sg21
I0
sg22
I0
sg23
I10
sg24
I0
sbssg25
S'vP\x96~\xd7qCl5\xdd\x88\x91I\xb2S\xf8'
p663
ssS'sahara_plugins_vanilla_v1_2_1_versionhandler'
p664
(dp665
g6
(dp666
g46
S'sahara_plugins_vanilla_v1_2_1_versionhandler.html'
p667
sg48
S'sahara/plugins/vanilla/v1_2_1/versionhandler'
p668
sg50
g13
(g14
g15
NtRp669
(dp670
g18
I1
sg19
I126
sg20
I330
sg21
I0
sg22
I6
sg23
I219
sg24
I108
sbssg25
S'\xa6\xee\xd4h|\xe1+\x0b\xd0W\xcd:k!r\x10'
p671
ssS'sahara_plugins_cdh_v5___init__'
p672
(dp673
g6
(dp674
g8
S'sahara_plugins_cdh_v5___init__.html'
p675
sg10
S'sahara/plugins/cdh/v5/__init__'
p676
sg12
g13
(g14
g15
NtRp677
(dp678
g18
I1
sg19
I0
sg20
I0
sg21
I0
sg22
I0
sg23
I0
sg24
I0
sbssg25
S'\x19g\xdfM\x1a\x019\xaf\x1baIeR\xe5u\xa7'
p679
ssS'sahara_service_edp_job_manager'
p680
(dp681
g6
(dp682
g46
S'sahara_service_edp_job_manager.html'
p683
sg48
S'sahara/service/edp/job_manager'
p684
sg50
g13
(g14
g15
NtRp685
(dp686
g18
I1
sg19
I41
sg20
I121
sg21
I0
sg22
I2
sg23
I72
sg24
I37
sbssg25
S'g1\xf0=c\x98\xd0\x19\x9d\xadh\xde\xda\xc9#<'
p687
ssS'sahara_plugins_hdp_ambariplugin'
p688
(dp689
g6
(dp690
g46
S'sahara_plugins_hdp_ambariplugin.html'
p691
sg48
S'sahara/plugins/hdp/ambariplugin'
p692
sg50
g13
(g14
g15
NtRp693
(dp694
g18
I1
sg19
I68
sg20
I253
sg21
I0
sg22
I6
sg23
I118
sg24
I34
sbssg25
S'\x04\x1f\xdf\xc1:%\xedAf\xc2\xabT\x86\xb6\xdf\xeb'
p695
ssS'sahara_swift_utils'
p696
(dp697
g6
(dp698
g8
S'sahara_swift_utils.html'
p699
sg10
S'sahara/swift/utils'
p700
sg12
g13
(g14
g15
NtRp701
(dp702
g18
I1
sg19
I10
sg20
I30
sg21
I0
sg22
I1
sg23
I7
sg24
I5
sbssg25
S'\x90\xd8\xdb\x1fy\x93\x8d\xe3\x94u\x06\x81\xa3\xd0~x'
p703
ssS'sahara_plugins_cdh_abstractversionhandler'
p704
(dp705
g6
(dp706
g8
S'sahara_plugins_cdh_abstractversionhandler.html'
p707
sg10
S'sahara/plugins/cdh/abstractversionhandler'
p708
sg12
g13
(g14
g15
NtRp709
(dp710
g18
I1
sg19
I2
sg20
I30
sg21
I0
sg22
I0
sg23
I13
sg24
I0
sbssg25
S'\xb79\x10\xe7$C\x8c@\xd8k\x91\x85\xca:\xcb\x90'
p711
ssS'sahara_context'
p712
(dp713
g6
(dp714
g46
S'sahara_context.html'
p715
sg48
S'sahara/context'
p716
sg50
g13
(g14
g15
NtRp717
(dp718
g18
I1
sg19
I44
sg20
I164
sg21
I0
sg22
I3
sg23
I2
sg24
I3
sbssg25
S'\x82\x00x;\x99.\xec\xcbP\xa7\xf1r\x866\xef\xd9'
p719
ssS'sahara_plugins_vanilla_hadoop2_config_helper'
p720
(dp721
g6
(dp722
g8
S'sahara_plugins_vanilla_hadoop2_config_helper.html'
p723
sg10
S'sahara/plugins/vanilla/hadoop2/config_helper'
p724
sg12
g13
(g14
g15
NtRp725
(dp726
g18
I1
sg19
I34
sg20
I66
sg21
I0
sg22
I3
sg23
I7
sg24
I5
sbssg25
S'\xb6\xd9\xb1\xf6\xc5\x83q\x9e\xb1 \xd3\x84\xd8\x18\x82\xa2'
p727
ssS'sahara_service_edp_oozie_workflow_creator___init__'
p728
(dp729
g6
(dp730
g8
S'sahara_service_edp_oozie_workflow_creator___init__.html'
p731
sg10
S'sahara/service/edp/oozie/workflow_creator/__init__'
p732
sg12
g13
(g14
g15
NtRp733
(dp734
g18
I1
sg19
I0
sg20
I0
sg21
I0
sg22
I0
sg23
I0
sg24
I0
sbssg25
S'\x19g\xdfM\x1a\x019\xaf\x1baIeR\xe5u\xa7'
p735
ssS'sahara_plugins_cdh_v5_versionhandler'
p736
(dp737
g6
(dp738
g46
S'sahara_plugins_cdh_v5_versionhandler.html'
p739
sg48
S'sahara/plugins/cdh/v5/versionhandler'
p740
sg50
g13
(g14
g15
NtRp741
(dp742
g18
I1
sg19
I4
sg20
I48
sg21
I0
sg22
I0
sg23
I22
sg24
I4
sbssg25
S'\xd6\xca \x89\xe1I\xb4\xedb\x01\xa8d+\xca\x96\xeb'
p743
ssS'sahara_plugins_mapr_services_mapreduce___init__'
p744
(dp745
g6
(dp746
g8
S'sahara_plugins_mapr_services_mapreduce___init__.html'
p747
sg10
S'sahara/plugins/mapr/services/mapreduce/__init__'
p748
sg12
g13
(g14
g15
NtRp749
(dp750
g18
I1
sg19
I0
sg20
I0
sg21
I0
sg22
I0
sg23
I0
sg24
I0
sbssg25
S'\x19g\xdfM\x1a\x019\xaf\x1baIeR\xe5u\xa7'
p751
ssS'sahara_utils_hacking_commit_message'
p752
(dp753
g6
(dp754
g8
S'sahara_utils_hacking_commit_message.html'
p755
sg10
S'sahara/utils/hacking/commit_message'
p756
sg12
g13
(g14
g15
NtRp757
(dp758
g18
I1
sg19
I9
sg20
I31
sg21
I0
sg22
I0
sg23
I18
sg24
I9
sbssg25
S'\x15"\x8b\x1c\t\xdc\xdfd\xc6@\xb1o\xb9Cv\''
p759
ssS'sahara_plugins_mapr_services_swift_swift'
p760
(dp761
g6
(dp762
g8
S'sahara_plugins_mapr_services_swift_swift.html'
p763
sg10
S'sahara/plugins/mapr/services/swift/swift'
p764
sg12
g13
(g14
g15
NtRp765
(dp766
g18
I1
sg19
I4
sg20
I25
sg21
I0
sg22
I0
sg23
I9
sg24
I2
sbssg25
S'.\x9ei\xe4\x99\xc3\xa2\xeb\x04?3\x0c\xa87\x07\x05'
p767
ssS'sahara_plugins_mapr_base_base_edp_engine'
p768
(dp769
g6
(dp770
g8
S'sahara_plugins_mapr_base_base_edp_engine.html'
p771
sg10
S'sahara/plugins/mapr/base/base_edp_engine'
p772
sg12
g13
(g14
g15
NtRp773
(dp774
g18
I1
sg19
I8
sg20
I54
sg21
I0
sg22
I0
sg23
I36
sg24
I8
sbssg25
S'i\x7f\x9f7\x9b\x00\xec+\xf6\x14\xb8z\x88\x95\x16\x9f'
p775
ssS'sahara_conductor_resource'
p776
(dp777
g6
(dp778
g8
S'sahara_conductor_resource.html'
p779
sg10
S'sahara/conductor/resource'
p780
sg12
g13
(g14
g15
NtRp781
(dp782
g18
I1
sg19
I52
sg20
I138
sg21
I0
sg22
I9
sg23
I2
sg24
I9
sbssg25
S'\xcd\xaeW)\xd5\xac\x87\xd7om\xd5A\xdd\xca\x8d\xab'
p783
ssS'sahara_plugins_vanilla_hadoop2___init__'
p784
(dp785
g6
(dp786
g8
S'sahara_plugins_vanilla_hadoop2___init__.html'
p787
sg10
S'sahara/plugins/vanilla/hadoop2/__init__'
p788
sg12
g13
(g14
g15
NtRp789
(dp790
g18
I1
sg19
I0
sg20
I0
sg21
I0
sg22
I0
sg23
I0
sg24
I0
sbssg25
S'\x19g\xdfM\x1a\x019\xaf\x1baIeR\xe5u\xa7'
p791
ssS'sahara_main'
p792
(dp793
g6
(dp794
g46
S'sahara_main.html'
p795
sg48
S'sahara/main'
p796
sg50
g13
(g14
g15
NtRp797
(dp798
g18
I1
sg19
I14
sg20
I98
sg21
I0
sg22
I0
sg23
I57
sg24
I14
sbssg25
S'\t*}\x86\xad\xdc\xf0\xd1\xd0\xb8\x938\x89\xeeu\xdd'
p799
ssS'sahara_plugins_cdh_v5_3_0_edp_engine'
p800
(dp801
g6
(dp802
g46
S'sahara_plugins_cdh_v5_3_0_edp_engine.html'
p803
sg48
S'sahara/plugins/cdh/v5_3_0/edp_engine'
p804
sg50
g13
(g14
g15
NtRp805
(dp806
g18
I1
sg19
I8
sg20
I37
sg21
I0
sg22
I1
sg23
I14
sg24
I3
sbssg25
S'\xc3\nd\xcd\x0f9&7\xdf\x87\x9f\x10\xe8\xaatJ'
p807
ssS'sahara_plugins_vanilla_v2_4_1_versionhandler'
p808
(dp809
g6
(dp810
g8
S'sahara_plugins_vanilla_v2_4_1_versionhandler.html'
p811
sg10
S'sahara/plugins/vanilla/v2_4_1/versionhandler'
p812
sg12
g13
(g14
g15
NtRp813
(dp814
g18
I1
sg19
I20
sg20
I84
sg21
I0
sg22
I1
sg23
I47
sg24
I19
sbssg25
S'\xa2\xeb\x9eA\xea\x91\xcd\xdd\x85;\x0e\xe4V!\xdc '
p815
ssS'sahara_utils_proxy'
p816
(dp817
g6
(dp818
g46
S'sahara_utils_proxy.html'
p819
sg48
S'sahara/utils/proxy'
p820
sg50
g13
(g14
g15
NtRp821
(dp822
g18
I1
sg19
I53
sg20
I131
sg21
I0
sg22
I2
sg23
I76
sg24
I26
sbssg25
S'K\xd1\xda\xc8\xa6\x8a@\x11+Z\xffim9\x96\x9f'
p823
ssS'sahara_service_validation'
p824
(dp825
g6
(dp826
g8
S'sahara_service_validation.html'
p827
sg10
S'sahara/service/validation'
p828
sg12
g13
(g14
g15
NtRp829
(dp830
g18
I1
sg19
I14
sg20
I47
sg21
I0
sg22
I2
sg23
I17
sg24
I10
sbssg25
S'\xfb3L\xdeoL\xb9\xe2\xe1]G\xd8r\xeca\xc5'
p831
ssS'sahara_plugins_vanilla_v1_2_1_run_scripts'
p832
(dp833
g6
(dp834
g46
S'sahara_plugins_vanilla_v1_2_1_run_scripts.html'
p835
sg48
S'sahara/plugins/vanilla/v1_2_1/run_scripts'
p836
sg50
g13
(g14
g15
NtRp837
(dp838
g18
I1
sg19
I4
sg20
I49
sg21
I0
sg22
I0
sg23
I28
sg24
I2
sbssg25
S'#\x00\xcd\x0bPnR"\xd9\x94\xf3\x15.\n\x95\xcd'
p839
ssS'sahara_plugins_cdh_v5_3_0_versionhandler'
p840
(dp841
g6
(dp842
g46
S'sahara_plugins_cdh_v5_3_0_versionhandler.html'
p843
sg48
S'sahara/plugins/cdh/v5_3_0/versionhandler'
p844
sg50
g13
(g14
g15
NtRp845
(dp846
g18
I1
sg19
I4
sg20
I48
sg21
I0
sg22
I0
sg23
I22
sg24
I4
sbssg25
S'\xed\xb9c<o\xe8Ui\x04\xbe-Ma\xb4\xef#'
p847
ssS'sahara_utils_resources'
p848
(dp849
g6
(dp850
g46
S'sahara_utils_resources.html'
p851
sg48
S'sahara/utils/resources'
p852
sg50
g13
(g14
g15
NtRp853
(dp854
g18
I1
sg19
I8
sg20
I38
sg21
I0
sg22
I0
sg23
I0
sg24
I0
sbssg25
S'\x19\x8f\x94\x96\x7f\xedD\x92\xbfgq\x1e\x82\x1a\xfei'
p855
ssS'sahara_plugins_hdp___init__'
p856
(dp857
g6
(dp858
g8
S'sahara_plugins_hdp___init__.html'
p859
sg10
S'sahara/plugins/hdp/__init__'
p860
sg12
g13
(g14
g15
NtRp861
(dp862
g18
I1
sg19
I0
sg20
I0
sg21
I0
sg22
I0
sg23
I0
sg24
I0
sbssg25
S'\x19g\xdfM\x1a\x019\xaf\x1baIeR\xe5u\xa7'
p863
ssS'sahara_plugins_mapr_versions_v4_0_1_mrv1_context'
p864
(dp865
g6
(dp866
g8
S'sahara_plugins_mapr_versions_v4_0_1_mrv1_context.html'
p867
sg10
S'sahara/plugins/mapr/versions/v4_0_1_mrv1/context'
p868
sg12
g13
(g14
g15
NtRp869
(dp870
g18
I1
sg19
I4
sg20
I24
sg21
I0
sg22
I0
sg23
I24
sg24
I4
sbssg25
S'-n\x80\xfe\xa1\xa0w\x03\x91\x05J\xe9\xdd\xfe6{'
p871
ssS'sahara_service_validations_edp_job_binary'
p872
(dp873
g6
(dp874
g8
S'sahara_service_validations_edp_job_binary.html'
p875
sg10
S'sahara/service/validations/edp/job_binary'
p876
sg12
g13
(g14
g15
NtRp877
(dp878
g18
I1
sg19
I7
sg20
I15
sg21
I0
sg22
I2
sg23
I2
sg24
I2
sbssg25
S'\xb4E_@\xb7\x13\xbeS\xe8H3~|\xb6s\x9b'
p879
ssS'sahara_plugins_hdp_configprovider'
p880
(dp881
g6
(dp882
g8
S'sahara_plugins_hdp_configprovider.html'
p883
sg10
S'sahara/plugins/hdp/configprovider'
p884
sg12
g13
(g14
g15
NtRp885
(dp886
g18
I1
sg19
I10
sg20
I40
sg21
I0
sg22
I1
sg23
I1
sg24
I1
sbssg25
S'<\x0e\xc0\x0f\x85\xfcgP\xe8\x8f\xee\x91h\x14\xb6\xeb'
p887
ssS'sahara_service_edp_oozie_workflow_creator_hive_workflow'
p888
(dp889
g6
(dp890
g8
S'sahara_service_edp_oozie_workflow_creator_hive_workflow.html'
p891
sg10
S'sahara/service/edp/oozie/workflow_creator/hive_workflow'
p892
sg12
g13
(g14
g15
NtRp893
(dp894
g18
I1
sg19
I2
sg20
I15
sg21
I0
sg22
I0
sg23
I0
sg24
I0
sbssg25
S'HZ\xcd\x1e\x82\xacO\nV\x05V\x02{\x12/\xd6'
p895
ssS'sahara_plugins_hdp_versions_version_2_0_6___init__'
p896
(dp897
g6
(dp898
g8
S'sahara_plugins_hdp_versions_version_2_0_6___init__.html'
p899
sg10
S'sahara/plugins/hdp/versions/version_2_0_6/__init__'
p900
sg12
g13
(g14
g15
NtRp901
(dp902
g18
I1
sg19
I0
sg20
I0
sg21
I0
sg22
I0
sg23
I0
sg24
I0
sbssg25
S'\x19g\xdfM\x1a\x019\xaf\x1baIeR\xe5u\xa7'
p903
ssS'sahara_service_trusts'
p904
(dp905
g6
(dp906
g46
S'sahara_service_trusts.html'
p907
sg48
S'sahara/service/trusts'
p908
sg50
g13
(g14
g15
NtRp909
(dp910
g18
I1
sg19
I6
sg20
I50
sg21
I0
sg22
I1
sg23
I31
sg24
I5
sbssg25
S'\xfd54\xa26\x85\x95\x8f\\\xc1\x14\xb8\x87\xa7U\xfe'
p911
ssS'sahara_plugins_cdh_v5_3_0_validation'
p912
(dp913
g6
(dp914
g46
S'sahara_plugins_cdh_v5_3_0_validation.html'
p915
sg48
S'sahara/plugins/cdh/v5_3_0/validation'
p916
sg50
g13
(g14
g15
NtRp917
(dp918
g18
I1
sg19
I118
sg20
I151
sg21
I0
sg22
I0
sg23
I140
sg24
I118
sbssg25
S'\xd7\x92a \xcaI\x9c*\x8e\xedF\xed\xc2r\xbf\xae'
p919
ssS'sahara_plugins_vanilla_hadoop2_validation'
p920
(dp921
g6
(dp922
g46
S'sahara_plugins_vanilla_hadoop2_validation.html'
p923
sg48
S'sahara/plugins/vanilla/hadoop2/validation'
p924
sg50
g13
(g14
g15
NtRp925
(dp926
g18
I1
sg19
I42
sg20
I70
sg21
I0
sg22
I1
sg23
I26
sg24
I17
sbssg25
S'\x9bw\xfc\xc8@\xfc[\x83\x11P\xe3d\xa0\x089o'
p927
ssS'sahara_plugins_mapr_versions_v4_0_1_mrv2_version_handler'
p928
(dp929
g6
(dp930
g8
S'sahara_plugins_mapr_versions_v4_0_1_mrv2_version_handler.html'
p931
sg10
S'sahara/plugins/mapr/versions/v4_0_1_mrv2/version_handler'
p932
sg12
g13
(g14
g15
NtRp933
(dp934
g18
I1
sg19
I0
sg20
I25
sg21
I0
sg22
I0
sg23
I0
sg24
I0
sbssg25
S"I\x83LI\xb3\x9aP\xd71\x07\xc47ln'\xbc"
p935
ssS'sahara_plugins_cdh_v5_3_0_plugin_utils'
p936
(dp937
g6
(dp938
g8
S'sahara_plugins_cdh_v5_3_0_plugin_utils.html'
p939
sg10
S'sahara/plugins/cdh/v5_3_0/plugin_utils'
p940
sg12
g13
(g14
g15
NtRp941
(dp942
g18
I1
sg19
I6
sg20
I45
sg21
I0
sg22
I0
sg23
I22
sg24
I6
sbssg25
S'[\x074\x99\xaa\x17\x95"_}c\x8c c\xdfn'
p943
ssS'sahara_plugins_cdh_v5_3_0_config_helper'
p944
(dp945
g6
(dp946
g46
S'sahara_plugins_cdh_v5_3_0_config_helper.html'
p947
sg48
S'sahara/plugins/cdh/v5_3_0/config_helper'
p948
sg50
g13
(g14
g15
NtRp949
(dp950
g18
I1
sg19
I4
sg20
I142
sg21
I0
sg22
I0
sg23
I58
sg24
I4
sbssg25
S'T\xd9\x00e\xfd\x93\x1b2\x98\xfb%\xd5\xd7\xc2\x99\xa9'
p951
ssS'sahara_utils___init__'
p952
(dp953
g6
(dp954
g8
S'sahara_utils___init__.html'
p955
sg10
S'sahara/utils/__init__'
p956
sg12
g13
(g14
g15
NtRp957
(dp958
g18
I1
sg19
I0
sg20
I0
sg21
I0
sg22
I0
sg23
I0
sg24
I0
sbssg25
S'\x19g\xdfM\x1a\x019\xaf\x1baIeR\xe5u\xa7'
p959
ssS'sahara_service_api'
p960
(dp961
g6
(dp962
g46
S'sahara_service_api.html'
p963
sg48
S'sahara/service/api'
p964
sg50
g13
(g14
g15
NtRp965
(dp966
g18
I1
sg19
I20
sg20
I149
sg21
I0
sg22
I0
sg23
I25
sg24
I2
sbssg25
S'\xd3?\xd2\xb1f\xed\xcd5>\xf3\xb3\xf9\xee\x02\xd5z'
p967
ssS'sahara_plugins_mapr_services_httpfs___init__'
p968
(dp969
g6
(dp970
g8
S'sahara_plugins_mapr_services_httpfs___init__.html'
p971
sg10
S'sahara/plugins/mapr/services/httpfs/__init__'
p972
sg12
g13
(g14
g15
NtRp973
(dp974
g18
I1
sg19
I0
sg20
I0
sg21
I0
sg22
I0
sg23
I0
sg24
I0
sbssg25
S'\x19g\xdfM\x1a\x019\xaf\x1baIeR\xe5u\xa7'
p975
ssS'sahara_utils_openstack_keystone'
p976
(dp977
g6
(dp978
g8
S'sahara_utils_openstack_keystone.html'
p979
sg10
S'sahara/utils/openstack/keystone'
p980
sg12
g13
(g14
g15
NtRp981
(dp982
g18
I1
sg19
I6
sg20
I48
sg21
I0
sg22
I0
sg23
I26
sg24
I6
sbssg25
S'\x1ba\xa6JkX\xe6\x1f\x92*\x0c\x9727\x9a\x90'
p983
ssS'sahara_plugins_mapr_base_base_cluster_context'
p984
(dp985
g6
(dp986
g46
S'sahara_plugins_mapr_base_base_cluster_context.html'
p987
sg48
S'sahara/plugins/mapr/base/base_cluster_context'
p988
sg50
g13
(g14
g15
NtRp989
(dp990
g18
I1
sg19
I72
sg20
I263
sg21
I0
sg22
I13
sg23
I64
sg24
I41
sbssg25
S'-\x11\xd5\xf8|WwOD\xa9\xf4\x0c\xc2\xa6\x18\x89'
p991
ssS'sahara_plugins_hdp_edp_engine'
p992
(dp993
g6
(dp994
g8
S'sahara_plugins_hdp_edp_engine.html'
p995
sg10
S'sahara/plugins/hdp/edp_engine'
p996
sg12
g13
(g14
g15
NtRp997
(dp998
g18
I1
sg19
I2
sg20
I17
sg21
I0
sg22
I0
sg23
I6
sg24
I2
sbssg25
S'v\xc0\xb0w/\x9b\xcb\xa2\xde|\xbe\xd7\x1f\x8f\r\xd8'
p999
ssS'sahara_plugins_cdh_v5_db_helper'
p1000
(dp1001
g6
(dp1002
g46
S'sahara_plugins_cdh_v5_db_helper.html'
p1003
sg48
S'sahara/plugins/cdh/v5/db_helper'
p1004
sg50
g13
(g14
g15
NtRp1005
(dp1006
g18
I1
sg19
I0
sg20
I9
sg21
I0
sg22
I0
sg23
I5
sg24
I0
sbssg25
S'\x98\x7fs\xfbA\x8f8\nz\xf6&\xbb\x00\x87\x96W'
p1007
ssS'sahara_service_validations_clusters_scaling'
p1008
(dp1009
g6
(dp1010
g8
S'sahara_service_validations_clusters_scaling.html'
p1011
sg10
S'sahara/service/validations/clusters_scaling'
p1012
sg12
g13
(g14
g15
NtRp1013
(dp1014
g18
I1
sg19
I16
sg20
I29
sg21
I0
sg22
I3
sg23
I1
sg24
I3
sbssg25
S"\x8f\x12\xafT}\x7f<N\x14_\xec\x97\xce\x92'\x90"
p1015
ssS'sahara_plugins_vanilla_utils'
p1016
(dp1017
g6
(dp1018
g8
S'sahara_plugins_vanilla_utils.html'
p1019
sg10
S'sahara/plugins/vanilla/utils'
p1020
sg12
g13
(g14
g15
NtRp1021
(dp1022
g18
I1
sg19
I0
sg20
I24
sg21
I0
sg22
I0
sg23
I3
sg24
I0
sbssg25
S'L&a\xdd\r\x15\xba\x82|@`\xf4J_\xc8&'
p1023
ssS'sahara_plugins_cdh_versionfactory'
p1024
(dp1025
g6
(dp1026
g46
S'sahara_plugins_cdh_versionfactory.html'
p1027
sg48
S'sahara/plugins/cdh/versionfactory'
p1028
sg50
g13
(g14
g15
NtRp1029
(dp1030
g18
I1
sg19
I4
sg20
I26
sg21
I0
sg22
I0
sg23
I0
sg24
I0
sbssg25
S'\xcf\xba\xed%\n\x06\xd4\xa80*\x0bk\x85G\xc0\xe0'
p1031
ssS'sahara_utils_xmlutils'
p1032
(dp1033
g6
(dp1034
g8
S'sahara_utils_xmlutils.html'
p1035
sg10
S'sahara/utils/xmlutils'
p1036
sg12
g13
(g14
g15
NtRp1037
(dp1038
g18
I1
sg19
I34
sg20
I109
sg21
I0
sg22
I0
sg23
I10
sg24
I2
sbssg25
S'\x9eA\x1d\xb8\x16\x1b\x04\xa3\xecZ\xbb/\x80\x19(\x9d'
p1039
ssS'sahara_plugins_vanilla_v2_6_0_config_helper'
p1040
(dp1041
g6
(dp1042
g46
S'sahara_plugins_vanilla_v2_6_0_config_helper.html'
p1043
sg48
S'sahara/plugins/vanilla/v2_6_0/config_helper'
p1044
sg50
g13
(g14
g15
NtRp1045
(dp1046
g18
I1
sg19
I0
sg20
I30
sg21
I0
sg22
I0
sg23
I1
sg24
I0
sbssg25
S'\xb8\x802\n\x00os\xb3\xbb\x104\xf6\xbfe]P'
p1047
ssS'sahara_plugins_mapr_util_general'
p1048
(dp1049
g6
(dp1050
g46
S'sahara_plugins_mapr_util_general.html'
p1051
sg48
S'sahara/plugins/mapr/util/general'
p1052
sg50
g13
(g14
g15
NtRp1053
(dp1054
g18
I1
sg19
I26
sg20
I119
sg21
I0
sg22
I0
sg23
I80
sg24
I20
sbssg25
S'\xc1(\xf6\xd0W\xf9\xa55s\x14\xa0\xde\xa2W\x8ap'
p1055
ssS'sahara_config'
p1056
(dp1057
g6
(dp1058
g8
S'sahara_config.html'
p1059
sg10
S'sahara/config'
p1060
sg12
g13
(g14
g15
NtRp1061
(dp1062
g18
I1
sg19
I2
sg20
I49
sg21
I0
sg22
I0
sg23
I22
sg24
I2
sbssg25
S'\xe0Wbu\r\xe2A\x9d"\xf54}\t\x9cg@'
p1063
ssS'sahara_plugins_hdp_versions_version_1_3_2_services'
p1064
(dp1065
g6
(dp1066
g8
S'sahara_plugins_hdp_versions_version_1_3_2_services.html'
p1067
sg10
S'sahara/plugins/hdp/versions/version_1_3_2/services'
p1068
sg12
g13
(g14
g15
NtRp1069
(dp1070
g18
I1
sg19
I134
sg20
I404
sg21
I0
sg22
I26
sg23
I28
sg24
I28
sbssg25
S'\x7f@\xd3\x06\x1c.\xb1R\xe0F\xc0VUn\xb0X'
p1071
ssS'sahara_plugins_mapr_services_hive___init__'
p1072
(dp1073
g6
(dp1074
g8
S'sahara_plugins_mapr_services_hive___init__.html'
p1075
sg10
S'sahara/plugins/mapr/services/hive/__init__'
p1076
sg12
g13
(g14
g15
NtRp1077
(dp1078
g18
I1
sg19
I0
sg20
I0
sg21
I0
sg22
I0
sg23
I0
sg24
I0
sbssg25
S'\x19g\xdfM\x1a\x019\xaf\x1baIeR\xe5u\xa7'
p1079
ssS'sahara_plugins_mapr_services_hbase___init__'
p1080
(dp1081
g6
(dp1082
g8
S'sahara_plugins_mapr_services_hbase___init__.html'
p1083
sg10
S'sahara/plugins/mapr/services/hbase/__init__'
p1084
sg12
g13
(g14
g15
NtRp1085
(dp1086
g18
I1
sg19
I0
sg20
I0
sg21
I0
sg22
I0
sg23
I0
sg24
I0
sbssg25
S'\x19g\xdfM\x1a\x019\xaf\x1baIeR\xe5u\xa7'
p1087
ssS'sahara_plugins_hdp_versions_version_1_3_2___init__'
p1088
(dp1089
g6
(dp1090
g8
S'sahara_plugins_hdp_versions_version_1_3_2___init__.html'
p1091
sg10
S'sahara/plugins/hdp/versions/version_1_3_2/__init__'
p1092
sg12
g13
(g14
g15
NtRp1093
(dp1094
g18
I1
sg19
I0
sg20
I0
sg21
I0
sg22
I0
sg23
I0
sg24
I0
sbssg25
S'\x19g\xdfM\x1a\x019\xaf\x1baIeR\xe5u\xa7'
p1095
ssS'sahara_plugins_hdp_versions_version_1_3_2_edp_engine'
p1096
(dp1097
g6
(dp1098
g46
S'sahara_plugins_hdp_versions_version_1_3_2_edp_engine.html'
p1099
sg48
S'sahara/plugins/hdp/versions/version_1_3_2/edp_engine'
p1100
sg50
g13
(g14
g15
NtRp1101
(dp1102
g18
I1
sg19
I6
sg20
I17
sg21
I0
sg22
I0
sg23
I1
sg24
I0
sbssg25
S'U\x1d&j\x91\x1b\xc9\xa1r1E\x92q\x08\xa8T'
p1103
ssS'sahara_plugins_mapr_versions_v3_1_1___init__'
p1104
(dp1105
g6
(dp1106
g8
S'sahara_plugins_mapr_versions_v3_1_1___init__.html'
p1107
sg10
S'sahara/plugins/mapr/versions/v3_1_1/__init__'
p1108
sg12
g13
(g14
g15
NtRp1109
(dp1110
g18
I1
sg19
I0
sg20
I0
sg21
I0
sg22
I0
sg23
I0
sg24
I0
sbssg25
S'\xe5P\x11)^\xf4>1D.\x0e\x0b\xa1\xf8[+'
p1111
ssS'sahara_plugins_mapr_services_mysql_mysql'
p1112
(dp1113
g6
(dp1114
g46
S'sahara_plugins_mapr_services_mysql_mysql.html'
p1115
sg48
S'sahara/plugins/mapr/services/mysql/mysql'
p1116
sg50
g13
(g14
g15
NtRp1117
(dp1118
g18
I1
sg19
I26
sg20
I124
sg21
I0
sg22
I0
sg23
I80
sg24
I24
sbssg25
S'\x9a\xc9\x8a\x87\xfe8\xb20\xbe\x8e\xa7r~4\xff\xcb'
p1119
ssS'sahara_service_quotas'
p1120
(dp1121
g6
(dp1122
g46
S'sahara_service_quotas.html'
p1123
sg48
S'sahara/service/quotas'
p1124
sg50
g13
(g14
g15
NtRp1125
(dp1126
g18
I1
sg19
I36
sg20
I109
sg21
I0
sg22
I0
sg23
I0
sg24
I0
sbssg25
S'\x08\xdbrT\x888\xe8\x12\xe7\xb28h\xc1\xff\x91\xce'
p1127
ssS'sahara_plugins_fake_edp_engine'
p1128
(dp1129
g6
(dp1130
g8
S'sahara_plugins_fake_edp_engine.html'
p1131
sg10
S'sahara/plugins/fake/edp_engine'
p1132
sg12
g13
(g14
g15
NtRp1133
(dp1134
g18
I1
sg19
I0
sg20
I15
sg21
I0
sg22
I0
sg23
I6
sg24
I0
sbssg25
S'3\xa1\x1f\xccB\xdcmKj\x8f\xfe5\xd2\xfe%6'
p1135
ssS'sahara_plugins_cdh_v5_3_0___init__'
p1136
(dp1137
g6
(dp1138
g8
S'sahara_plugins_cdh_v5_3_0___init__.html'
p1139
sg10
S'sahara/plugins/cdh/v5_3_0/__init__'
p1140
sg12
g13
(g14
g15
NtRp1141
(dp1142
g18
I1
sg19
I0
sg20
I0
sg21
I0
sg22
I0
sg23
I0
sg24
I0
sbssg25
S'\x19g\xdfM\x1a\x019\xaf\x1baIeR\xe5u\xa7'
p1143
ssS'sahara_service_heat___init__'
p1144
(dp1145
g6
(dp1146
g8
S'sahara_service_heat___init__.html'
p1147
sg10
S'sahara/service/heat/__init__'
p1148
sg12
g13
(g14
g15
NtRp1149
(dp1150
g18
I1
sg19
I0
sg20
I0
sg21
I0
sg22
I0
sg23
I0
sg24
I0
sbssg25
S'\x19g\xdfM\x1a\x019\xaf\x1baIeR\xe5u\xa7'
p1151
ssS'sahara_db_sqlalchemy_models'
p1152
(dp1153
g6
(dp1154
g8
S'sahara_db_sqlalchemy_models.html'
p1155
sg10
S'sahara/db/sqlalchemy/models'
p1156
sg12
g13
(g14
g15
NtRp1157
(dp1158
g18
I1
sg19
I2
sg20
I239
sg21
I0
sg22
I0
sg23
I0
sg24
I0
sbssg25
S'\xe2\x92-\x89\x85\xf6f0\xae2_h\x11\xde\xa0\xc0'
p1159
ssS'sahara_plugins_vanilla_v2_4_1___init__'
p1160
(dp1161
g6
(dp1162
g8
S'sahara_plugins_vanilla_v2_4_1___init__.html'
p1163
sg10
S'sahara/plugins/vanilla/v2_4_1/__init__'
p1164
sg12
g13
(g14
g15
NtRp1165
(dp1166
g18
I1
sg19
I0
sg20
I0
sg21
I0
sg22
I0
sg23
I0
sg24
I0
sbssg25
S'\x19g\xdfM\x1a\x019\xaf\x1baIeR\xe5u\xa7'
p1167
ssS'sahara_plugins_cdh_client_users'
p1168
(dp1169
g6
(dp1170
g8
S'sahara_plugins_cdh_client_users.html'
p1171
sg10
S'sahara/plugins/cdh/client/users'
p1172
sg12
g13
(g14
g15
NtRp1173
(dp1174
g18
I1
sg19
I0
sg20
I10
sg21
I0
sg22
I0
sg23
I3
sg24
I0
sbssg25
S'\xc7>\xdb\xea\xa8S\xd9\x08\xb6\xd0\xeaI\xb1~A\x14'
p1175
ssS'sahara_api_acl'
p1176
(dp1177
g6
(dp1178
g46
S'sahara_api_acl.html'
p1179
sg48
S'sahara/api/acl'
p1180
sg50
g13
(g14
g15
NtRp1181
(dp1182
g18
I1
sg19
I0
sg20
I20
sg21
I0
sg22
I0
sg23
I1
sg24
I0
sbssg25
S'2\x85\x12\xb0\x15\xb7i?\xd0\xde\xce\xdf\t\xc0^['
p1183
ssS'sahara_plugins_mapr_services_drill_drill'
p1184
(dp1185
g6
(dp1186
g8
S'sahara_plugins_mapr_services_drill_drill.html'
p1187
sg10
S'sahara/plugins/mapr/services/drill/drill'
p1188
sg12
g13
(g14
g15
NtRp1189
(dp1190
g18
I1
sg19
I4
sg20
I24
sg21
I0
sg22
I0
sg23
I6
sg24
I2
sbssg25
S'wN7\x9d\xdd%\xa7\x9c\xd2\x04\xacA\xb8\n\xaa\xa3'
p1191
ssS'sahara_plugins_storm_edp_engine'
p1192
(dp1193
g384
(dp1194
g46
S'sahara_plugins_storm_edp_engine.html'
p1195
sg48
S'sahara/plugins/storm/edp_engine'
p1196
sg50
g13
(g14
g15
NtRp1197
(dp1198
g18
I1
sg19
I2
sg20
I11
sg21
I0
sg22
I0
sg23
I4
sg24
I2
sbssg390
S'\xf9p\x9aQB\x98n\x93V,\xaaJkR9\x1f'
p1199
ssS'sahara_plugins_vanilla_v2_6_0_versionhandler'
p1200
(dp1201
g6
(dp1202
g46
S'sahara_plugins_vanilla_v2_6_0_versionhandler.html'
p1203
sg48
S'sahara/plugins/vanilla/v2_6_0/versionhandler'
p1204
sg50
g13
(g14
g15
NtRp1205
(dp1206
g18
I1
sg19
I22
sg20
I106
sg21
I0
sg22
I0
sg23
I61
sg24
I22
sbssg25
S'\x86\x1e \xac\x1d\x848\xb7|\xf2\xdf&`H\xa3\xb1'
p1207
ssS'sahara_utils_openstack___init__'
p1208
(dp1209
g6
(dp1210
g8
S'sahara_utils_openstack___init__.html'
p1211
sg10
S'sahara/utils/openstack/__init__'
p1212
sg12
g13
(g14
g15
NtRp1213
(dp1214
g18
I1
sg19
I0
sg20
I0
sg21
I0
sg22
I0
sg23
I0
sg24
I0
sbssg25
S'\x19g\xdfM\x1a\x019\xaf\x1baIeR\xe5u\xa7'
p1215
ssS'sahara_plugins_cdh_v5_3_0_deploy'
p1216
(dp1217
g6
(dp1218
g8
S'sahara_plugins_cdh_v5_3_0_deploy.html'
p1219
sg10
S'sahara/plugins/cdh/v5_3_0/deploy'
p1220
sg12
g13
(g14
g15
NtRp1221
(dp1222
g18
I1
sg19
I38
sg20
I87
sg21
I0
sg22
I0
sg23
I71
sg24
I38
sbssg25
S' \xe1J\x95\x9cS\xe6\x00\xd1\xcb%\xe4\x8d\x0c)^'
p1223
ssS'sahara_plugins_vanilla_hadoop2_utils'
p1224
(dp1225
g6
(dp1226
g8
S'sahara_plugins_vanilla_hadoop2_utils.html'
p1227
sg10
S'sahara/plugins/vanilla/hadoop2/utils'
p1228
sg12
g13
(g14
g15
NtRp1229
(dp1230
g18
I1
sg19
I4
sg20
I20
sg21
I0
sg22
I0
sg23
I0
sg24
I0
sbssg25
S"\xb9H\xbb\x17\x07?k\xc7J\xd8\xb6\xc5\xd6\xc4'("
p1231
ssS'sahara_service_validations_node_group_templates'
p1232
(dp1233
g6
(dp1234
g8
S'sahara_service_validations_node_group_templates.html'
p1235
sg10
S'sahara/service/validations/node_group_templates'
p1236
sg12
g13
(g14
g15
NtRp1237
(dp1238
g18
I1
sg19
I16
sg20
I29
sg21
I0
sg22
I0
sg23
I18
sg24
I16
sbssg25
S'\xc43\x8fx\x84O\xc7\xbaBs\xb6\x03\xbc\xbe=0'
p1239
ssS'sahara_plugins_mapr_plugin'
p1240
(dp1241
g6
(dp1242
g8
S'sahara_plugins_mapr_plugin.html'
p1243
sg10
S'sahara/plugins/mapr/plugin'
p1244
sg12
g13
(g14
g15
NtRp1245
(dp1246
g18
I1
sg19
I4
sg20
I49
sg21
I0
sg22
I0
sg23
I27
sg24
I4
sbssg25
S'\xaf\xddk"n\x98(\x14\xeb\xaaOI\xb9\xd8\xb7\xd5'
p1247
ssS'sahara_version'
p1248
(dp1249
g6
(dp1250
g8
S'sahara_version.html'
p1251
sg10
S'sahara/version'
p1252
sg12
g13
(g14
g15
NtRp1253
(dp1254
g18
I1
sg19
I0
sg20
I2
sg21
I0
sg22
I0
sg23
I0
sg24
I0
sbssg25
S'\x88 \xbb\xe1\xe2\x8fi`R\x06_\xa1\x8b\xdeaC'
p1255
ssS'sahara_plugins_mapr_abstract_cluster_context'
p1256
(dp1257
g6
(dp1258
g8
S'sahara_plugins_mapr_abstract_cluster_context.html'
p1259
sg10
S'sahara/plugins/mapr/abstract/cluster_context'
p1260
sg12
g13
(g14
g15
NtRp1261
(dp1262
g18
I1
sg19
I2
sg20
I77
sg21
I0
sg22
I0
sg23
I34
sg24
I0
sbssg25
S'\xe5=\x99LT\xf0\xfe\r\xd8\xbeX\x04\x18\x02(\xdb'
p1263
ssS'sahara_plugins_vanilla_versionfactory'
p1264
(dp1265
g6
(dp1266
g8
S'sahara_plugins_vanilla_versionfactory.html'
p1267
sg10
S'sahara/plugins/vanilla/versionfactory'
p1268
sg12
g13
(g14
g15
NtRp1269
(dp1270
g18
I1
sg19
I4
sg20
I26
sg21
I0
sg22
I0
sg23
I0
sg24
I0
sbssg25
S'?!{\x06ZP\xe0]\x93\xb0\x15\xc2\x04X\xa5J'
p1271
ssS'sahara_plugins_mapr_base___init__'
p1272
(dp1273
g6
(dp1274
g8
S'sahara_plugins_mapr_base___init__.html'
p1275
sg10
S'sahara/plugins/mapr/base/__init__'
p1276
sg12
g13
(g14
g15
NtRp1277
(dp1278
g18
I1
sg19
I0
sg20
I0
sg21
I0
sg22
I0
sg23
I0
sg24
I0
sbssg25
S'\x19g\xdfM\x1a\x019\xaf\x1baIeR\xe5u\xa7'
p1279
ssS'sahara_service_networks'
p1280
(dp1281
g6
(dp1282
g46
S'sahara_service_networks.html'
p1283
sg48
S'sahara/service/networks'
p1284
sg50
g13
(g14
g15
NtRp1285
(dp1286
g18
I1
sg19
I24
sg20
I48
sg21
I0
sg22
I4
sg23
I0
sg24
I4
sbssg25
S'\x17\xf3\xfcS\xbf\xdfU\xdb\xf6l\xc4\xfb\x06:\xc2y'
p1287
ssS'sahara_plugins_mapr_services_management_management'
p1288
(dp1289
g6
(dp1290
g8
S'sahara_plugins_mapr_services_management_management.html'
p1291
sg10
S'sahara/plugins/mapr/services/management/management'
p1292
sg12
g13
(g14
g15
NtRp1293
(dp1294
g18
I1
sg19
I2
sg20
I16
sg21
I0
sg22
I0
sg23
I0
sg24
I0
sbssg25
S'\x81!\xb2\xa4<\x9d\xd2=\x94\xa0\x05:D\x98?2'
p1295
ssS'sahara_plugins_vanilla_v1_2_1_scaling'
p1296
(dp1297
g6
(dp1298
g8
S'sahara_plugins_vanilla_v1_2_1_scaling.html'
p1299
sg10
S'sahara/plugins/vanilla/v1_2_1/scaling'
p1300
sg12
g13
(g14
g15
NtRp1301
(dp1302
g18
I1
sg19
I21
sg20
I54
sg21
I0
sg22
I0
sg23
I18
sg24
I7
sbssg25
S'\x13 \x02Md\x1cG\x100\xfc\xd2\xfb0\xeb\xf0\xba'
p1303
ssS'sahara_plugins_cdh_client_api_client'
p1304
(dp1305
g6
(dp1306
g8
S'sahara_plugins_cdh_client_api_client.html'
p1307
sg10
S'sahara/plugins/cdh/client/api_client'
p1308
sg12
g13
(g14
g15
NtRp1309
(dp1310
g18
I1
sg19
I2
sg20
I37
sg21
I0
sg22
I0
sg23
I18
sg24
I2
sbssg25
S'\xf7\x99ia4\xdb\x0c\xe6z\xefN\xc1\xc1(\xc7\xd5'
p1311
ssS'sahara_plugins_cdh_client_http_client'
p1312
(dp1313
g6
(dp1314
g46
S'sahara_plugins_cdh_client_http_client.html'
p1315
sg48
S'sahara/plugins/cdh/client/http_client'
p1316
sg50
g13
(g14
g15
NtRp1317
(dp1318
g18
I1
sg19
I26
sg20
I82
sg21
I0
sg22
I0
sg23
I61
sg24
I26
sbssg25
S'lv\xd4\xe7\xa05k\x97\x88\xf4\x1d\xf3\xdd&B\x99'
p1319
ssS'sahara_plugins_mapr_abstract___init__'
p1320
(dp1321
g6
(dp1322
g8
S'sahara_plugins_mapr_abstract___init__.html'
p1323
sg10
S'sahara/plugins/mapr/abstract/__init__'
p1324
sg12
g13
(g14
g15
NtRp1325
(dp1326
g18
I1
sg19
I0
sg20
I0
sg21
I0
sg22
I0
sg23
I0
sg24
I0
sbssg25
S'\x19g\xdfM\x1a\x019\xaf\x1baIeR\xe5u\xa7'
p1327
ssS'sahara_plugins_cdh_confighints_helper'
p1328
(dp1329
g384
(dp1330
g46
S'sahara_plugins_cdh_confighints_helper.html'
p1331
sg48
S'sahara/plugins/cdh/confighints_helper'
p1332
sg50
g13
(g14
g15
NtRp1333
(dp1334
g18
I1
sg19
I0
sg20
I12
sg21
I0
sg22
I0
sg23
I0
sg24
I0
sbssg390
S'\xc3A\t\x8c\\\x0e\xda\x95a{\xbem\\e\x1ed'
p1335
ssS'sahara_plugins_mapr_services_httpfs_httpfs'
p1336
(dp1337
g6
(dp1338
g8
S'sahara_plugins_mapr_services_httpfs_httpfs.html'
p1339
sg10
S'sahara/plugins/mapr/services/httpfs/httpfs'
p1340
sg12
g13
(g14
g15
NtRp1341
(dp1342
g18
I1
sg19
I2
sg20
I19
sg21
I0
sg22
I0
sg23
I2
sg24
I0
sbssg25
S'4\x04^H\x96\\\x19@\x12\x8ch&_D\\\x8a'
p1343
ssS'sahara_plugins_cdh___init__'
p1344
(dp1345
g6
(dp1346
g8
S'sahara_plugins_cdh___init__.html'
p1347
sg10
S'sahara/plugins/cdh/__init__'
p1348
sg12
g13
(g14
g15
NtRp1349
(dp1350
g18
I1
sg19
I0
sg20
I0
sg21
I0
sg22
I0
sg23
I0
sg24
I0
sbssg25
S'\x19g\xdfM\x1a\x019\xaf\x1baIeR\xe5u\xa7'
p1351
ssS'sahara_service_validations_images'
p1352
(dp1353
g6
(dp1354
g8
S'sahara_service_validations_images.html'
p1355
sg10
S'sahara/service/validations/images'
p1356
sg12
g13
(g14
g15
NtRp1357
(dp1358
g18
I1
sg19
I0
sg20
I6
sg21
I0
sg22
I0
sg23
I1
sg24
I0
sbssg25
S'\x16w\x86\xf1\x99\xea\x16\xb0\x89\x19\xb3\xe1\xd7\xe3\xce\xea'
p1359
ssS'sahara_service_edp_binary_retrievers_sahara_db'
p1360
(dp1361
g6
(dp1362
g8
S'sahara_service_edp_binary_retrievers_sahara_db.html'
p1363
sg10
S'sahara/service/edp/binary_retrievers/sahara_db'
p1364
sg12
g13
(g14
g15
NtRp1365
(dp1366
g18
I1
sg19
I0
sg20
I5
sg21
I0
sg22
I0
sg23
I0
sg24
I0
sbssg25
S'\t?\xe4\x83\xa1+\x90\xb5\x1c%\x83:aP\x843'
p1367
ssS'sahara_plugins_vanilla_hadoop2_scaling'
p1368
(dp1369
g6
(dp1370
g8
S'sahara_plugins_vanilla_hadoop2_scaling.html'
p1371
sg10
S'sahara/plugins/vanilla/hadoop2/scaling'
p1372
sg12
g13
(g14
g15
NtRp1373
(dp1374
g18
I1
sg19
I20
sg20
I79
sg21
I0
sg22
I0
sg23
I58
sg24
I20
sbssg25
S'\xaa@\n\x88\tf\xec\xa9\xeeP\xb8|E\x1c(1'
p1375
ssS'sahara_service_heat_templates'
p1376
(dp1377
g6
(dp1378
g46
S'sahara_service_heat_templates.html'
p1379
sg48
S'sahara/service/heat/templates'
p1380
sg50
g13
(g14
g15
NtRp1381
(dp1382
g18
I1
sg19
I54
sg20
I146
sg21
I0
sg22
I8
sg23
I41
sg24
I26
sbssg25
S'\x15C\x133[\xb7Q\xbc\x87\xe8\xc5\x92NwL\x8b'
p1383
ssS'sahara_service_validations_edp_job_execution'
p1384
(dp1385
g6
(dp1386
g8
S'sahara_service_validations_edp_job_execution.html'
p1387
sg10
S'sahara/service/validations/edp/job_execution'
p1388
sg12
g13
(g14
g15
NtRp1389
(dp1390
g18
I1
sg19
I12
sg20
I40
sg21
I0
sg22
I3
sg23
I5
sg24
I3
sbssg25
S'\xc6\x02\x1d\xea\xf7\xe9q\xad2;\xb8\x05\x1d\x1c\xe8\x95'
p1391
ssS'sahara_plugins_hdp_versions_abstractversionhandler'
p1392
(dp1393
g6
(dp1394
g8
S'sahara_plugins_hdp_versions_abstractversionhandler.html'
p1395
sg10
S'sahara/plugins/hdp/versions/abstractversionhandler'
p1396
sg12
g13
(g14
g15
NtRp1397
(dp1398
g18
I1
sg19
I2
sg20
I31
sg21
I0
sg22
I0
sg23
I13
sg24
I0
sbssg25
S'\xd0\n\xd4\x04`g\xa3\x8aQ\xb1\xb2\xf7>\r]\xd4'
p1399
ssS'sahara_utils_remote'
p1400
(dp1401
g6
(dp1402
g8
S'sahara_utils_remote.html'
p1403
sg10
S'sahara/utils/remote'
p1404
sg12
g13
(g14
g15
NtRp1405
(dp1406
g18
I1
sg19
I34
sg20
I49
sg21
I0
sg22
I14
sg23
I8
sg24
I16
sbssg25
S'\xd8\xee\x82\x00Is\xba\x99\xbd\xff6\x0fC#qE'
p1407
ssS'sahara_service_edp_oozie_workflow_creator_mapreduce_workflow'
p1408
(dp1409
g6
(dp1410
g8
S'sahara_service_edp_oozie_workflow_creator_mapreduce_workflow.html'
p1411
sg10
S'sahara/service/edp/oozie/workflow_creator/mapreduce_workflow'
p1412
sg12
g13
(g14
g15
NtRp1413
(dp1414
g18
I1
sg19
I4
sg20
I12
sg21
I0
sg22
I0
sg23
I0
sg24
I0
sbssg25
S'!\x8e.\xf9:\xa0\x1f\xe6H_}\xd2\x04\xb8;\xe9'
p1415
ssS'sahara_plugins_mapr_services_pig_pig'
p1416
(dp1417
g6
(dp1418
g8
S'sahara_plugins_mapr_services_pig_pig.html'
p1419
sg10
S'sahara/plugins/mapr/services/pig/pig'
p1420
sg12
g13
(g14
g15
NtRp1421
(dp1422
g18
I1
sg19
I2
sg20
I14
sg21
I0
sg22
I0
sg23
I0
sg24
I0
sbssg25
S'p@oM\xb5\x86,8\xc2Y\xf2\xca\xe0\x0b><'
p1423
ssS'sahara_conductor_manager'
p1424
(dp1425
g6
(dp1426
g46
S'sahara_conductor_manager.html'
p1427
sg48
S'sahara/conductor/manager'
p1428
sg50
g13
(g14
g15
NtRp1429
(dp1430
g18
I1
sg19
I12
sg20
I199
sg21
I0
sg22
I0
sg23
I0
sg24
I0
sbssg25
S'a*\x1eg\xfb\xcd\xd6\x0f\x17<\xff\xa6\xb2\x1d9\xc2'
p1431
ssS'sahara_cli___init__'
p1432
(dp1433
g6
(dp1434
g8
S'sahara_cli___init__.html'
p1435
sg10
S'sahara/cli/__init__'
p1436
sg12
g13
(g14
g15
NtRp1437
(dp1438
g18
I1
sg19
I0
sg20
I0
sg21
I0
sg22
I0
sg23
I0
sg24
I0
sbssg25
S'\xe5P\x11)^\xf4>1D.\x0e\x0b\xa1\xf8[+'
p1439
ssS'sahara_utils_hacking_import_checks'
p1440
(dp1441
g6
(dp1442
g8
S'sahara_utils_hacking_import_checks.html'
p1443
sg10
S'sahara/utils/hacking/import_checks'
p1444
sg12
g13
(g14
g15
NtRp1445
(dp1446
g18
I1
sg19
I30
sg20
I78
sg21
I0
sg22
I0
sg23
I62
sg24
I30
sbssg25
S'\xe9\x116\x80\xb4\xe9\xedy\xe6&$\xa9%\xa6\xdeb'
p1447
ssS'sahara_plugins_mapr_versions_mapr_spark_context'
p1448
(dp1449
g6
(dp1450
g8
S'sahara_plugins_mapr_versions_mapr_spark_context.html'
p1451
sg10
S'sahara/plugins/mapr/versions/mapr_spark/context'
p1452
sg12
g13
(g14
g15
NtRp1453
(dp1454
g18
I1
sg19
I4
sg20
I24
sg21
I0
sg22
I0
sg23
I24
sg24
I4
sbssg25
S'r\xaf\xe2\xdb|\xce\xc3\x04\xfa>\x82Cb\xfd\xb0\xfc'
p1455
ssS'sahara_plugins_hdp_versions_version_2_0_6_versionhandler'
p1456
(dp1457
g6
(dp1458
g46
S'sahara_plugins_hdp_versions_version_2_0_6_versionhandler.html'
p1459
sg48
S'sahara/plugins/hdp/versions/version_2_0_6/versionhandler'
p1460
sg50
g13
(g14
g15
NtRp1461
(dp1462
g18
I1
sg19
I166
sg20
I551
sg21
I0
sg22
I1
sg23
I450
sg24
I163
sbssg25
S"N\x0b,\x7f\xc4\xe3V\xd8\x92\xa3K\xf1\xe8\xe7!'"
p1463
ssS'sahara_plugins_spark_scaling'
p1464
(dp1465
g6
(dp1466
g8
S'sahara_plugins_spark_scaling.html'
p1467
sg10
S'sahara/plugins/spark/scaling'
p1468
sg12
g13
(g14
g15
NtRp1469
(dp1470
g18
I1
sg19
I27
sg20
I65
sg21
I0
sg22
I0
sg23
I51
sg24
I27
sbssg25
S')A\xc2\t\xd4\xe34P\xa9c\xec\x11\xd0\xb6\xc8\xf5'
p1471
ssS'sahara_plugins_mapr_services_flume___init__'
p1472
(dp1473
g6
(dp1474
g8
S'sahara_plugins_mapr_services_flume___init__.html'
p1475
sg10
S'sahara/plugins/mapr/services/flume/__init__'
p1476
sg12
g13
(g14
g15
NtRp1477
(dp1478
g18
I1
sg19
I0
sg20
I0
sg21
I0
sg22
I0
sg23
I0
sg24
I0
sbssg25
S'\x19g\xdfM\x1a\x019\xaf\x1baIeR\xe5u\xa7'
p1479
ssS'sahara_plugins_vanilla_v1_2_1_oozie_helper'
p1480
(dp1481
g6
(dp1482
g8
S'sahara_plugins_vanilla_v1_2_1_oozie_helper.html'
p1483
sg10
S'sahara/plugins/vanilla/v1_2_1/oozie_helper'
p1484
sg12
g13
(g14
g15
NtRp1485
(dp1486
g18
I1
sg19
I4
sg20
I10
sg21
I0
sg22
I0
sg23
I3
sg24
I4
sbssg25
S'\xac\xa0\xea\x03\x9dA.\xd7\xabo\xcdD\xd2b\xceV'
p1487
ssS'sahara_plugins_mapr_domain_distro'
p1488
(dp1489
g6
(dp1490
g8
S'sahara_plugins_mapr_domain_distro.html'
p1491
sg10
S'sahara/plugins/mapr/domain/distro'
p1492
sg12
g13
(g14
g15
NtRp1493
(dp1494
g18
I1
sg19
I4
sg20
I32
sg21
I0
sg22
I0
sg23
I7
sg24
I4
sbssg25
S'\xee"\xfc\x1d+\xdbx\xd0D,\n%\xd8\xa1\x9b\xe9'
p1495
ssS'sahara_utils_sqlatypes'
p1496
(dp1497
g6
(dp1498
g8
S'sahara_utils_sqlatypes.html'
p1499
sg10
S'sahara/utils/sqlatypes'
p1500
sg12
g13
(g14
g15
NtRp1501
(dp1502
g18
I1
sg19
I12
sg20
I52
sg21
I0
sg22
I0
sg23
I52
sg24
I12
sbssg25
S'\x05\x97\xc0\x7f\xcf\xbfC\x97~\x1c\xa4T\xd2\xc1\x18\xee'
p1503
ssS'sahara_plugins_hdp_saharautils'
p1504
(dp1505
g6
(dp1506
g8
S'sahara_plugins_hdp_saharautils.html'
p1507
sg10
S'sahara/plugins/hdp/saharautils'
p1508
sg12
g13
(g14
g15
NtRp1509
(dp1510
g18
I1
sg19
I2
sg20
I13
sg21
I0
sg22
I0
sg23
I7
sg24
I2
sbssg25
S'\x80\xe3\xb2\x98\xf0\x1cI\xa3\xca\r\xb9\x8cX\x8c\xc3\xfa'
p1511
ssS'sahara_utils_hacking_checks'
p1512
(dp1513
g6
(dp1514
g46
S'sahara_utils_hacking_checks.html'
p1515
sg48
S'sahara/utils/hacking/checks'
p1516
sg50
g13
(g14
g15
NtRp1517
(dp1518
g18
I1
sg19
I31
sg20
I59
sg21
I0
sg22
I0
sg23
I32
sg24
I20
sbssg25
S'\xc14\xb8nj\xbcK\xa1\xa6\xff\x8d\x8d\xfc\xa2d\xb8'
p1519
ssS'sahara_utils_openstack_barbican'
p1520
(dp1521
g6
(dp1522
g8
S'sahara_utils_openstack_barbican.html'
p1523
sg10
S'sahara/utils/openstack/barbican'
p1524
sg12
g13
(g14
g15
NtRp1525
(dp1526
g18
I1
sg19
I0
sg20
I5
sg21
I0
sg22
I0
sg23
I2
sg24
I0
sbssg25
S'4~\xf3\xe9\xf4\xf4\x05\xf8y\x1euv\xc6L\x19l'
p1527
ssS'sahara_service_edp_oozie_workflow_creator_pig_workflow'
p1528
(dp1529
g6
(dp1530
g8
S'sahara_service_edp_oozie_workflow_creator_pig_workflow.html'
p1531
sg10
S'sahara/service/edp/oozie/workflow_creator/pig_workflow'
p1532
sg12
g13
(g14
g15
NtRp1533
(dp1534
g18
I1
sg19
I4
sg20
I15
sg21
I0
sg22
I0
sg23
I0
sg24
I0
sbssg25
S'\xf7\xc7\xcd _n\x04)H\x84\x8a\xe0`-9\xa4'
p1535
ssS'sahara_plugins_mapr_versions_mapr_spark___init__'
p1536
(dp1537
g6
(dp1538
g8
S'sahara_plugins_mapr_versions_mapr_spark___init__.html'
p1539
sg10
S'sahara/plugins/mapr/versions/mapr_spark/__init__'
p1540
sg12
g13
(g14
g15
NtRp1541
(dp1542
g18
I1
sg19
I0
sg20
I0
sg21
I0
sg22
I0
sg23
I0
sg24
I0
sbssg25
S'\xe5P\x11)^\xf4>1D.\x0e\x0b\xa1\xf8[+'
p1543
ssS'sahara_plugins_mapr_services_impala_impala'
p1544
(dp1545
g6
(dp1546
g8
S'sahara_plugins_mapr_services_impala_impala.html'
p1547
sg10
S'sahara/plugins/mapr/services/impala/impala'
p1548
sg12
g13
(g14
g15
NtRp1549
(dp1550
g18
I1
sg19
I8
sg20
I50
sg21
I0
sg22
I0
sg23
I26
sg24
I4
sbssg25
S'~\x81\xc3\xc4\xaf\xbe\xa5\x91\xcd\xd4"\xa6\xff\x14\x84\x0b'
p1551
ssS'sahara_plugins_spark_config_helper'
p1552
(dp1553
g6
(dp1554
g8
S'sahara_plugins_spark_config_helper.html'
p1555
sg10
S'sahara/plugins/spark/config_helper'
p1556
sg12
g13
(g14
g15
NtRp1557
(dp1558
g18
I1
sg19
I128
sg20
I217
sg21
I0
sg22
I4
sg23
I94
sg24
I73
sbssg25
S'\xf9P\x81\x16/\x1d=<d\xb4\x95\x1c\xbf5\xf2\x9a'
p1559
ssS'sahara_plugins_mapr_services_spark___init__'
p1560
(dp1561
g6
(dp1562
g8
S'sahara_plugins_mapr_services_spark___init__.html'
p1563
sg10
S'sahara/plugins/mapr/services/spark/__init__'
p1564
sg12
g13
(g14
g15
NtRp1565
(dp1566
g18
I1
sg19
I0
sg20
I0
sg21
I0
sg22
I0
sg23
I0
sg24
I0
sbssg25
S'\x19g\xdfM\x1a\x019\xaf\x1baIeR\xe5u\xa7'
p1567
ssS'sahara_plugins_mapr_domain_service'
p1568
(dp1569
g6
(dp1570
g46
S'sahara_plugins_mapr_domain_service.html'
p1571
sg48
S'sahara/plugins/mapr/domain/service'
p1572
sg50
g13
(g14
g15
NtRp1573
(dp1574
g18
I1
sg19
I24
sg20
I125
sg21
I0
sg22
I4
sg23
I35
sg24
I10
sbssg25
S'\x8b\x1d\x02+\xee\xd4\x16]\x08\xe8g\x1c]6.8'
p1575
ssS'sahara_service_validations_cluster_template_schema'
p1576
(dp1577
g6
(dp1578
g8
S'sahara_service_validations_cluster_template_schema.html'
p1579
sg10
S'sahara/service/validations/cluster_template_schema'
p1580
sg12
g13
(g14
g15
NtRp1581
(dp1582
g18
I1
sg19
I0
sg20
I19
sg21
I0
sg22
I0
sg23
I0
sg24
I0
sbssg25
S'\x12\x84\x0e]\xbe\xaf3`o/\xe6\x85h3\x89\xca'
p1583
ssS'sahara_plugins_mapr_services_sqoop_sqoop2'
p1584
(dp1585
g6
(dp1586
g8
S'sahara_plugins_mapr_services_sqoop_sqoop2.html'
p1587
sg10
S'sahara/plugins/mapr/services/sqoop/sqoop2'
p1588
sg12
g13
(g14
g15
NtRp1589
(dp1590
g18
I1
sg19
I4
sg20
I20
sg21
I0
sg22
I0
sg23
I3
sg24
I2
sbssg25
S"}\xa1\xd0\xd6\x84\xeb\x9cG\x7f'%\xc75\xdeU\x02"
p1591
ssS'sahara_plugins_utils'
p1592
(dp1593
g6
(dp1594
g8
S'sahara_plugins_utils.html'
p1595
sg10
S'sahara/plugins/utils'
p1596
sg12
g13
(g14
g15
NtRp1597
(dp1598
g18
I1
sg19
I8
sg20
I30
sg21
I0
sg22
I0
sg23
I1
sg24
I0
sbssg25
S'u\x84\x99)\x0e\x00\xde\xb3<?\x10#)Yr\x04'
p1599
ssS'sahara_service_validations_edp_job_binary_internal'
p1600
(dp1601
g6
(dp1602
g8
S'sahara_service_validations_edp_job_binary_internal.html'
p1603
sg10
S'sahara/service/validations/edp/job_binary_internal'
p1604
sg12
g13
(g14
g15
NtRp1605
(dp1606
g18
I1
sg19
I6
sg20
I10
sg21
I0
sg22
I0
sg23
I6
sg24
I6
sbssg25
S'RC\x82\x86\xb5\xefKQF\xd5\xaeA\xa7\x94\x9fs'
p1607
ssS'sahara_service_edp_binary_retrievers_dispatch'
p1608
(dp1609
g6
(dp1610
g8
S'sahara_service_edp_binary_retrievers_dispatch.html'
p1611
sg10
S'sahara/service/edp/binary_retrievers/dispatch'
p1612
sg12
g13
(g14
g15
NtRp1613
(dp1614
g18
I1
sg19
I6
sg20
I13
sg21
I0
sg22
I0
sg23
I0
sg24
I0
sbssg25
S'7$\xb2\xa4\xbbF{\xb6\x0b\xc0`j\x80T\xf5\xf5'
p1615
ssS'sahara_plugins_mapr_services_drill___init__'
p1616
(dp1617
g6
(dp1618
g8
S'sahara_plugins_mapr_services_drill___init__.html'
p1619
sg10
S'sahara/plugins/mapr/services/drill/__init__'
p1620
sg12
g13
(g14
g15
NtRp1621
(dp1622
g18
I1
sg19
I0
sg20
I0
sg21
I0
sg22
I0
sg23
I0
sg24
I0
sbssg25
S'\x19g\xdfM\x1a\x019\xaf\x1baIeR\xe5u\xa7'
p1623
ssS'sahara_cli_sahara_api'
p1624
(dp1625
g6
(dp1626
g8
S'sahara_cli_sahara_api.html'
p1627
sg10
S'sahara/cli/sahara_api'
p1628
sg12
g13
(g14
g15
NtRp1629
(dp1630
g18
I1
sg19
I2
sg20
I18
sg21
I0
sg22
I0
sg23
I18
sg24
I2
sbssg25
S'\x8b\xc2\xe5\xe9x\xbaf\x83\x8b\xec\xc4\xfc\x81\xa9=\xae'
p1631
ssS'sahara_api_v10'
p1632
(dp1633
g6
(dp1634
g46
S'sahara_api_v10.html'
p1635
sg48
S'sahara/api/v10'
p1636
sg50
g13
(g14
g15
NtRp1637
(dp1638
g18
I1
sg19
I0
sg20
I127
sg21
I0
sg22
I0
sg23
I33
sg24
I0
sbssg25
S'\xd33\xd6?\xb1^[U\xf2\xef\x1b\xe7\xf6\xf9C\xe1'
p1639
ssS'sahara_plugins_cdh_v5_edp_engine'
p1640
(dp1641
g6
(dp1642
g46
S'sahara_plugins_cdh_v5_edp_engine.html'
p1643
sg48
S'sahara/plugins/cdh/v5/edp_engine'
p1644
sg50
g13
(g14
g15
NtRp1645
(dp1646
g18
I1
sg19
I8
sg20
I37
sg21
I0
sg22
I1
sg23
I14
sg24
I3
sbssg25
S'Y~\xd8\xe8\x83\x94\xff\xc4\xe7\x19n\x194\xa8u\xff'
p1647
ssS'sahara_plugins_mapr_base_base_version_handler'
p1648
(dp1649
g6
(dp1650
g8
S'sahara_plugins_mapr_base_base_version_handler.html'
p1651
sg10
S'sahara/plugins/mapr/base/base_version_handler'
p1652
sg12
g13
(g14
g15
NtRp1653
(dp1654
g18
I1
sg19
I22
sg20
I92
sg21
I0
sg22
I2
sg23
I28
sg24
I4
sbssg25
S'\x88\xba\xf9\x04\xdbr\x9bn\xeb\xdad\x9b\xe5Z\x18?'
p1655
ssS'sahara_plugins_cdh_client_types'
p1656
(dp1657
g6
(dp1658
g46
S'sahara_plugins_cdh_client_types.html'
p1659
sg48
S'sahara/plugins/cdh/client/types'
p1660
sg50
g13
(g14
g15
NtRp1661
(dp1662
g18
I1
sg19
I102
sg20
I284
sg21
I0
sg22
I0
sg23
I191
sg24
I100
sbssg25
S'I\x0f\xcd\xff\t\\\xca\xdc\xb1\x93$\xa0\x93\xf2Y\x9d'
p1663
ssS'sahara_db_sqlalchemy___init__'
p1664
(dp1665
g6
(dp1666
g8
S'sahara_db_sqlalchemy___init__.html'
p1667
sg10
S'sahara/db/sqlalchemy/__init__'
p1668
sg12
g13
(g14
g15
NtRp1669
(dp1670
g18
I1
sg19
I0
sg20
I0
sg21
I0
sg22
I0
sg23
I0
sg24
I0
sbssg25
S'\x19g\xdfM\x1a\x019\xaf\x1baIeR\xe5u\xa7'
p1671
ssS'sahara_service_edp_spark_engine'
p1672
(dp1673
g6
(dp1674
g8
S'sahara_service_edp_spark_engine.html'
p1675
sg10
S'sahara/service/edp/spark/engine'
p1676
sg12
g13
(g14
g15
NtRp1677
(dp1678
g18
I1
sg19
I47
sg20
I175
sg21
I0
sg22
I6
sg23
I13
sg24
I6
sbssg25
S'\xef"\xb49\x0c5\x05V\xaf\xffZe<\xf4T{'
p1679
ssS'sahara_plugins_hdp_clusterspec'
p1680
(dp1681
g6
(dp1682
g8
S'sahara_plugins_hdp_clusterspec.html'
p1683
sg10
S'sahara/plugins/hdp/clusterspec'
p1684
sg12
g13
(g14
g15
NtRp1685
(dp1686
g18
I1
sg19
I130
sg20
I267
sg21
I0
sg22
I8
sg23
I23
sg24
I24
sbssg25
S'B\xfaA\xc8\x88\xd4\x81\xf5\xea\xeb\xf2i\xae[~w'
p1687
ssS'sahara_plugins_exceptions'
p1688
(dp1689
g6
(dp1690
g8
S'sahara_plugins_exceptions.html'
p1691
sg10
S'sahara/plugins/exceptions'
p1692
sg12
g13
(g14
g15
NtRp1693
(dp1694
g18
I1
sg19
I6
sg20
I46
sg21
I0
sg22
I0
sg23
I12
sg24
I2
sbssg25
S'\xfa\x18\x13:\x9d\x86;!PA\xb4\x83\x1d\nK\xa4'
p1695
ssS'sahara_plugins_vanilla_v1_2_1_mysql_helper'
p1696
(dp1697
g6
(dp1698
g8
S'sahara_plugins_vanilla_v1_2_1_mysql_helper.html'
p1699
sg10
S'sahara/plugins/vanilla/v1_2_1/mysql_helper'
p1700
sg12
g13
(g14
g15
NtRp1701
(dp1702
g18
I1
sg19
I2
sg20
I9
sg21
I0
sg22
I0
sg23
I0
sg24
I0
sbssg25
S'ZS[S\x9b5\xf5\r@\x8a\x1aG\x0b\\3)'
p1703
ssS'sahara_db_base'
p1704
(dp1705
g6
(dp1706
g8
S'sahara_db_base.html'
p1707
sg10
S'sahara/db/base'
p1708
sg12
g13
(g14
g15
NtRp1709
(dp1710
g18
I1
sg19
I0
sg20
I7
sg21
I0
sg22
I0
sg23
I0
sg24
I0
sbssg25
S'\xe2\xdd\xa1\xb1^\x1e\x18\x0f\xc6j?kQ\x109\x80'
p1711
ssS'sahara_exceptions'
p1712
(dp1713
g6
(dp1714
g46
S'sahara_exceptions.html'
p1715
sg48
S'sahara/exceptions'
p1716
sg50
g13
(g14
g15
NtRp1717
(dp1718
g18
I1
sg19
I38
sg20
I211
sg21
I0
sg22
I0
sg23
I0
sg24
I0
sbssg25
S'm\xdd\xbf\x8a%\xfbr]\xcb\x02\xf5\xfe\xa9\x91\x90e'
p1719
ssS'sahara_plugins___init__'
p1720
(dp1721
g6
(dp1722
g8
S'sahara_plugins___init__.html'
p1723
sg10
S'sahara/plugins/__init__'
p1724
sg12
g13
(g14
g15
NtRp1725
(dp1726
g18
I1
sg19
I0
sg20
I0
sg21
I0
sg22
I0
sg23
I0
sg24
I0
sbssg25
S'\x19g\xdfM\x1a\x019\xaf\x1baIeR\xe5u\xa7'
p1727
ssS'sahara_plugins_cdh_v5_deploy'
p1728
(dp1729
g6
(dp1730
g8
S'sahara_plugins_cdh_v5_deploy.html'
p1731
sg10
S'sahara/plugins/cdh/v5/deploy'
p1732
sg12
g13
(g14
g15
NtRp1733
(dp1734
g18
I1
sg19
I40
sg20
I127
sg21
I0
sg22
I0
sg23
I102
sg24
I40
sbssg25
S'){\x8e\xaa\x1e\xaa\xbdv\xa9\x86]\x95p\x81\x0e7'
p1735
ssS'sahara_swift___init__'
p1736
(dp1737
g6
(dp1738
g8
S'sahara_swift___init__.html'
p1739
sg10
S'sahara/swift/__init__'
p1740
sg12
g13
(g14
g15
NtRp1741
(dp1742
g18
I1
sg19
I0
sg20
I0
sg21
I0
sg22
I0
sg23
I0
sg24
I0
sbssg25
S'\x19g\xdfM\x1a\x019\xaf\x1baIeR\xe5u\xa7'
p1743
ssS'sahara_i18n'
p1744
(dp1745
g6
(dp1746
g8
S'sahara_i18n.html'
p1747
sg10
S'sahara/i18n'
p1748
sg12
g13
(g14
g15
NtRp1749
(dp1750
g18
I1
sg19
I0
sg20
I7
sg21
I0
sg22
I0
sg23
I0
sg24
I0
sbssg25
S'g\xff\xc4\xd0-)O\xefk\xcf&\xf3\xa1F\xffF'
p1751
ssS'sahara_plugins_mapr_services_oozie___init__'
p1752
(dp1753
g6
(dp1754
g8
S'sahara_plugins_mapr_services_oozie___init__.html'
p1755
sg10
S'sahara/plugins/mapr/services/oozie/__init__'
p1756
sg12
g13
(g14
g15
NtRp1757
(dp1758
g18
I1
sg19
I0
sg20
I0
sg21
I0
sg22
I0
sg23
I0
sg24
I0
sbssg25
S'\x19g\xdfM\x1a\x019\xaf\x1baIeR\xe5u\xa7'
p1759
ssS'sahara_plugins_cdh_plugin'
p1760
(dp1761
g6
(dp1762
g46
S'sahara_plugins_cdh_plugin.html'
p1763
sg48
S'sahara/plugins/cdh/plugin'
p1764
sg50
g13
(g14
g15
NtRp1765
(dp1766
g18
I1
sg19
I4
sg20
I44
sg21
I0
sg22
I1
sg23
I13
sg24
I1
sbssg25
S'/\xa7?@B\xb1x\xf2\xd0k\x93q/K\xc8#'
p1767
ssS'sahara_conductor_api'
p1768
(dp1769
g6
(dp1770
g46
S'sahara_conductor_api.html'
p1771
sg48
S'sahara/conductor/api'
p1772
sg50
g13
(g14
g15
NtRp1773
(dp1774
g18
I1
sg19
I6
sg20
I137
sg21
I0
sg22
I1
sg23
I18
sg24
I1
sbssg25
S"^'\xe6\x13u?\x0c^\xdb\x86\x11\xd0s\xed\x9c\x8b"
p1775
ssS'sahara_plugins_vanilla_v1_2_1_edp_engine'
p1776
(dp1777
g6
(dp1778
g46
S'sahara_plugins_vanilla_v1_2_1_edp_engine.html'
p1779
sg48
S'sahara/plugins/vanilla/v1_2_1/edp_engine'
p1780
sg50
g13
(g14
g15
NtRp1781
(dp1782
g18
I1
sg19
I6
sg20
I17
sg21
I0
sg22
I0
sg23
I1
sg24
I0
sbssg25
S'\xf7\xea\x0bK\xa4\xf8\x01t[\xa8(#\xb8\xda\xb5B'
p1783
ssS'sahara_utils_wsgi'
p1784
(dp1785
g6
(dp1786
g46
S'sahara_utils_wsgi.html'
p1787
sg48
S'sahara/utils/wsgi'
p1788
sg50
g13
(g14
g15
NtRp1789
(dp1790
g18
I1
sg19
I18
sg20
I127
sg21
I0
sg22
I0
sg23
I85
sg24
I18
sbssg25
S'\x05\x12m0\xe6\xe2\xa7\xcdh\x1b\xbd\xaa^\\>:'
p1791
ssS'sahara_utils_notification_sender'
p1792
(dp1793
g6
(dp1794
g46
S'sahara_utils_notification_sender.html'
p1795
sg48
S'sahara/utils/notification/sender'
p1796
sg50
g13
(g14
g15
NtRp1797
(dp1798
g18
I1
sg19
I4
sg20
I27
sg21
I0
sg22
I1
sg23
I0
sg24
I1
sbssg25
S'\x19\x96\x86\x93\x8b\xcdw\xb8H\x03\xfe\x01\xce\xa2\xa8U'
p1799
ssS'sahara_service_edp_base_engine'
p1800
(dp1801
g6
(dp1802
g8
S'sahara_service_edp_base_engine.html'
p1803
sg10
S'sahara/service/edp/base_engine'
p1804
sg12
g13
(g14
g15
NtRp1805
(dp1806
g18
I1
sg19
I2
sg20
I20
sg21
I0
sg22
I0
sg23
I6
sg24
I0
sbssg25
S'\xe3lZJN*\xe8\xce3\xbf\xbe&l8\xd1f'
p1807
ssS'sahara_conductor___init__'
p1808
(dp1809
g6
(dp1810
g8
S'sahara_conductor___init__.html'
p1811
sg10
S'sahara/conductor/__init__'
p1812
sg12
g13
(g14
g15
NtRp1813
(dp1814
g18
I1
sg19
I2
sg20
I9
sg21
I0
sg22
I1
sg23
I1
sg24
I1
sbssg25
S'\xa7\xb0\x89\xe1ksG\xa8\xda-\xad\xf3\xa41_\xa5'
p1815
ssS'sahara_plugins_mapr_versions_version_handler_factory'
p1816
(dp1817
g6
(dp1818
g8
S'sahara_plugins_mapr_versions_version_handler_factory.html'
p1819
sg10
S'sahara/plugins/mapr/versions/version_handler_factory'
p1820
sg12
g13
(g14
g15
NtRp1821
(dp1822
g18
I1
sg19
I2
sg20
I27
sg21
I0
sg22
I0
sg23
I19
sg24
I2
sbssg25
S'\x12]\x83\xf5\xb4\xc0mK!+\xed\xdc\xe7\xdc`\xb5'
p1823
ssS'sahara_plugins_mapr_services_mapreduce_mapreduce'
p1824
(dp1825
g6
(dp1826
g8
S'sahara_plugins_mapr_services_mapreduce_mapreduce.html'
p1827
sg10
S'sahara/plugins/mapr/services/mapreduce/mapreduce'
p1828
sg12
g13
(g14
g15
NtRp1829
(dp1830
g18
I1
sg19
I22
sg20
I89
sg21
I0
sg22
I0
sg23
I55
sg24
I20
sbssg25
S'H\x94\xc1\x8a\xb9\x86&\xa7iw\xd4\x96\xb9CH\xa8'
p1831
ssS'sahara_utils_openstack_cinder'
p1832
(dp1833
g6
(dp1834
g46
S'sahara_utils_openstack_cinder.html'
p1835
sg48
S'sahara/utils/openstack/cinder'
p1836
sg50
g13
(g14
g15
NtRp1837
(dp1838
g18
I1
sg19
I8
sg20
I42
sg21
I0
sg22
I3
sg23
I3
sg24
I3
sbssg25
S'&\x085\xa5\na\xe7\xb7-\xefV\xe9E\x96>\xde'
p1839
ssS'sahara_db_templates___init__'
p1840
(dp1841
g6
(dp1842
g8
S'sahara_db_templates___init__.html'
p1843
sg10
S'sahara/db/templates/__init__'
p1844
sg12
g13
(g14
g15
NtRp1845
(dp1846
g18
I1
sg19
I0
sg20
I0
sg21
I0
sg22
I0
sg23
I0
sg24
I0
sbssg25
S'\x19g\xdfM\x1a\x019\xaf\x1baIeR\xe5u\xa7'
p1847
ssS'sahara_service_edp_spark___init__'
p1848
(dp1849
g6
(dp1850
g8
S'sahara_service_edp_spark___init__.html'
p1851
sg10
S'sahara/service/edp/spark/__init__'
p1852
sg12
g13
(g14
g15
NtRp1853
(dp1854
g18
I1
sg19
I0
sg20
I0
sg21
I0
sg22
I0
sg23
I0
sg24
I0
sbssg25
S'\x19g\xdfM\x1a\x019\xaf\x1baIeR\xe5u\xa7'
p1855
ssS'sahara_utils_poll_utils'
p1856
(dp1857
g6
(dp1858
g46
S'sahara_utils_poll_utils.html'
p1859
sg48
S'sahara/utils/poll_utils'
p1860
sg50
g13
(g14
g15
NtRp1861
(dp1862
g18
I1
sg19
I18
sg20
I62
sg21
I0
sg22
I0
sg23
I0
sg24
I0
sbssg25
S'a\x8d\xdf\xd0\tI!q\x02\xde\x1aB\xf7\x92\x02\xad'
p1863
ssS'sahara_plugins_vanilla_hadoop2_edp_engine'
p1864
(dp1865
g6
(dp1866
g8
S'sahara_plugins_vanilla_hadoop2_edp_engine.html'
p1867
sg10
S'sahara/plugins/vanilla/hadoop2/edp_engine'
p1868
sg12
g13
(g14
g15
NtRp1869
(dp1870
g18
I1
sg19
I0
sg20
I7
sg21
I0
sg22
I0
sg23
I1
sg24
I0
sbssg25
S"\x1d7Z\xff\xd4\x0c!\xad\xd6\xf8R.#\xde\x18'"
p1871
ssS'sahara_utils_api_validator'
p1872
(dp1873
g6
(dp1874
g8
S'sahara_utils_api_validator.html'
p1875
sg10
S'sahara/utils/api_validator'
p1876
sg12
g13
(g14
g15
NtRp1877
(dp1878
g18
I1
sg19
I50
sg20
I87
sg21
I0
sg22
I10
sg23
I10
sg24
I10
sbssg25
S"\xed\x06\xc2-\xbbM\xbf$Pn\xec\xa1'y\xc1\x94"
p1879
ssS'sahara_conductor_objects'
p1880
(dp1881
g6
(dp1882
g46
S'sahara_conductor_objects.html'
p1883
sg48
S'sahara/conductor/objects'
p1884
sg50
g13
(g14
g15
NtRp1885
(dp1886
g18
I1
sg19
I14
sg20
I48
sg21
I0
sg22
I2
sg23
I10
sg24
I8
sbssg25
S'\xa9,YJ\xef4\xfbid\x8dWP\x8d<q\xd0'
p1887
ssS'sahara_plugins_fake_plugin'
p1888
(dp1889
g6
(dp1890
g8
S'sahara_plugins_fake_plugin.html'
p1891
sg10
S'sahara/plugins/fake/plugin'
p1892
sg12
g13
(g14
g15
NtRp1893
(dp1894
g18
I1
sg19
I14
sg20
I59
sg21
I0
sg22
I0
sg23
I37
sg24
I14
sbssg25
S'\xba\xce\x83\xf8\x016\x14\xee5\x7f\xa3\x932;V\x01'
p1895
ssS'sahara_plugins_mapr_services_yarn_yarn'
p1896
(dp1897
g6
(dp1898
g8
S'sahara_plugins_mapr_services_yarn_yarn.html'
p1899
sg10
S'sahara/plugins/mapr/services/yarn/yarn'
p1900
sg12
g13
(g14
g15
NtRp1901
(dp1902
g18
I1
sg19
I14
sg20
I64
sg21
I0
sg22
I0
sg23
I24
sg24
I10
sbssg25
S'\xcd/\xa5\xd2\xc8f\xa3\xd9,\xd4+0>u\xfd\xe8'
p1903
ssS'sahara_plugins_mapr_versions_mapr_spark_spark_node_manager'
p1904
(dp1905
g6
(dp1906
g8
S'sahara_plugins_mapr_versions_mapr_spark_spark_node_manager.html'
p1907
sg10
S'sahara/plugins/mapr/versions/mapr_spark/spark_node_manager'
p1908
sg12
g13
(g14
g15
NtRp1909
(dp1910
g18
I1
sg19
I2
sg20
I9
sg21
I0
sg22
I0
sg23
I9
sg24
I2
sbssg25
S'\x01e\x8d\xd4\xc6X\xe5V\x98c\xf2\xba;\x87\x1e\x9d'
p1911
ssS'sahara_plugins_mapr_services_maprfs_maprfs'
p1912
(dp1913
g6
(dp1914
g8
S'sahara_plugins_mapr_services_maprfs_maprfs.html'
p1915
sg10
S'sahara/plugins/mapr/services/maprfs/maprfs'
p1916
sg12
g13
(g14
g15
NtRp1917
(dp1918
g18
I1
sg19
I6
sg20
I66
sg21
I0
sg22
I0
sg23
I26
sg24
I4
sbssg25
S'\xcd\xe3:,\xa0f\xad\xf2\xc1)\xcaQ\xb2\x7f\x81\t'
p1919
ssS'sahara_service_ops'
p1920
(dp1921
g6
(dp1922
g46
S'sahara_service_ops.html'
p1923
sg48
S'sahara/service/ops'
p1924
sg50
g13
(g14
g15
NtRp1925
(dp1926
g18
I1
sg19
I24
sg20
I186
sg21
I0
sg22
I8
sg23
I50
sg24
I12
sbssg25
S'\xb9\x0e\x80}\xbf\xfb\xd6a`\xd3bO\xfb\x1d\xa8\xcb'
p1927
ssS'sahara_service_edp_oozie_workflow_creator_java_workflow'
p1928
(dp1929
g6
(dp1930
g8
S'sahara_service_edp_oozie_workflow_creator_java_workflow.html'
p1931
sg10
S'sahara/service/edp/oozie/workflow_creator/java_workflow'
p1932
sg12
g13
(g14
g15
NtRp1933
(dp1934
g18
I1
sg19
I6
sg20
I16
sg21
I0
sg22
I1
sg23
I0
sg24
I1
sbssg25
S'\x8a(\xecrD\x0f\xec\xc5\x94\xd6c\xd1)\x9f\x87\x1c'
p1935
ssS'sahara_utils_notification___init__'
p1936
(dp1937
g6
(dp1938
g8
S'sahara_utils_notification___init__.html'
p1939
sg10
S'sahara/utils/notification/__init__'
p1940
sg12
g13
(g14
g15
NtRp1941
(dp1942
g18
I1
sg19
I0
sg20
I0
sg21
I0
sg22
I0
sg23
I0
sg24
I0
sbssg25
S'\x19g\xdfM\x1a\x019\xaf\x1baIeR\xe5u\xa7'
p1943
ssS'sahara_plugins_mapr_services_swift___init__'
p1944
(dp1945
g6
(dp1946
g8
S'sahara_plugins_mapr_services_swift___init__.html'
p1947
sg10
S'sahara/plugins/mapr/services/swift/__init__'
p1948
sg12
g13
(g14
g15
NtRp1949
(dp1950
g18
I1
sg19
I0
sg20
I0
sg21
I0
sg22
I0
sg23
I0
sg24
I0
sbssg25
S'\x19g\xdfM\x1a\x019\xaf\x1baIeR\xe5u\xa7'
p1951
ssS'sahara_plugins_mapr_versions_v4_0_2_mrv1_version_handler'
p1952
(dp1953
g6
(dp1954
g8
S'sahara_plugins_mapr_versions_v4_0_2_mrv1_version_handler.html'
p1955
sg10
S'sahara/plugins/mapr/versions/v4_0_2_mrv1/version_handler'
p1956
sg12
g13
(g14
g15
NtRp1957
(dp1958
g18
I1
sg19
I0
sg20
I26
sg21
I0
sg22
I0
sg23
I26
sg24
I0
sbssg25
S'\xe7\x15\xf9\x03#\rr\x97\xa4^\x8d\xfad\xb0\x98^'
p1959
ssS'sahara_plugins_base'
p1960
(dp1961
g6
(dp1962
g46
S'sahara_plugins_base.html'
p1963
sg48
S'sahara/plugins/base'
p1964
sg50
g13
(g14
g15
NtRp1965
(dp1966
g18
I1
sg19
I12
sg20
I60
sg21
I0
sg22
I3
sg23
I7
sg24
I3
sbssg25
S'\xe2\xc3_C\x84\x16N\x92X\xe82\xb9\xbd~\x84^'
p1967
ssS'sahara_service_validations___init__'
p1968
(dp1969
g6
(dp1970
g8
S'sahara_service_validations___init__.html'
p1971
sg10
S'sahara/service/validations/__init__'
p1972
sg12
g13
(g14
g15
NtRp1973
(dp1974
g18
I1
sg19
I0
sg20
I0
sg21
I0
sg22
I0
sg23
I0
sg24
I0
sbssg25
S'\x19g\xdfM\x1a\x019\xaf\x1baIeR\xe5u\xa7'
p1975
ssS'sahara_utils_types'
p1976
(dp1977
g6
(dp1978
g8
S'sahara_utils_types.html'
p1979
sg10
S'sahara/utils/types'
p1980
sg12
g13
(g14
g15
NtRp1981
(dp1982
g18
I1
sg19
I0
sg20
I54
sg21
I0
sg22
I0
sg23
I20
sg24
I0
sbssg25
S'0\xa7\xb7\xc8\xc2\xb5\\+\xbfZOG\xcf\x92\x90\x9d'
p1983
ssS'sahara_utils_hacking_logging_checks'
p1984
(dp1985
g384
(dp1986
g46
S'sahara_utils_hacking_logging_checks.html'
p1987
sg48
S'sahara/utils/hacking/logging_checks'
p1988
sg50
g13
(g14
g15
NtRp1989
(dp1990
g18
I1
sg19
I22
sg20
I36
sg21
I0
sg22
I0
sg23
I27
sg24
I22
sbssg390
S'^\x90\x94\x1cU\x05\xed\x98M\\\x15\xd9\x0c\xbf\x0f\xd7'
p1991
ssS'sahara_plugins_cdh_v5_3_0_cloudera_utils'
p1992
(dp1993
g6
(dp1994
g8
S'sahara_plugins_cdh_v5_3_0_cloudera_utils.html'
p1995
sg10
S'sahara/plugins/cdh/v5_3_0/cloudera_utils'
p1996
sg12
g13
(g14
g15
NtRp1997
(dp1998
g18
I1
sg19
I74
sg20
I173
sg21
I0
sg22
I6
sg23
I118
sg24
I64
sbssg25
S"MZ]J\xf3\x99\x7fM\xb8Cm\xeb=g'V"
p1999
ssS'sahara_service_edp_job_utils'
p2000
(dp2001
g6
(dp2002
g8
S'sahara_service_edp_job_utils.html'
p2003
sg10
S'sahara/service/edp/job_utils'
p2004
sg12
g13
(g14
g15
NtRp2005
(dp2006
g18
I1
sg19
I49
sg20
I100
sg21
I0
sg22
I7
sg23
I1
sg24
I7
sbssg25
S'\x90\xb8-\x18\x198z\x81~N\xfc\x15"D\xcf\xbd'
p2007
ssS'sahara_plugins_mapr_services_maprfs___init__'
p2008
(dp2009
g6
(dp2010
g8
S'sahara_plugins_mapr_services_maprfs___init__.html'
p2011
sg10
S'sahara/plugins/mapr/services/maprfs/__init__'
p2012
sg12
g13
(g14
g15
NtRp2013
(dp2014
g18
I1
sg19
I0
sg20
I0
sg21
I0
sg22
I0
sg23
I0
sg24
I0
sbssg25
S'\x19g\xdfM\x1a\x019\xaf\x1baIeR\xe5u\xa7'
p2015
ssS'sahara_plugins_mapr_abstract_cluster_validator'
p2016
(dp2017
g6
(dp2018
g8
S'sahara_plugins_mapr_abstract_cluster_validator.html'
p2019
sg10
S'sahara/plugins/mapr/abstract/cluster_validator'
p2020
sg12
g13
(g14
g15
NtRp2021
(dp2022
g18
I1
sg19
I2
sg20
I8
sg21
I0
sg22
I0
sg23
I2
sg24
I0
sbssg25
S't7\x83\t\x94\x94\x9c\xaf\xafm\x94\xe7\xf6\xceE\xcb'
p2023
ssS'sahara_plugins_mapr_domain_node_process'
p2024
(dp2025
g6
(dp2026
g46
S'sahara_plugins_mapr_domain_node_process.html'
p2027
sg48
S'sahara/plugins/mapr/domain/node_process'
p2028
sg50
g13
(g14
g15
NtRp2029
(dp2030
g18
I1
sg19
I12
sg20
I82
sg21
I0
sg22
I0
sg23
I33
sg24
I12
sbssg25
S'SA\xe1;\x1d\xd8Z\xd2\xa4\x9c\xbfNHW}\xf0'
p2031
ssS'sahara_service_edp_oozie_workflow_creator_shell_workflow'
p2032
(dp2033
g6
(dp2034
g8
S'sahara_service_edp_oozie_workflow_creator_shell_workflow.html'
p2035
sg10
S'sahara/service/edp/oozie/workflow_creator/shell_workflow'
p2036
sg12
g13
(g14
g15
NtRp2037
(dp2038
g18
I1
sg19
I4
sg20
I16
sg21
I0
sg22
I0
sg23
I0
sg24
I0
sbssg25
S'(\xae\x15\xd6\x821\xc0\x88$\x13\xa0 \x0eW\x8b\x98'
p2039
ssS'sahara_plugins_mapr_versions_v4_0_1_mrv2_context'
p2040
(dp2041
g6
(dp2042
g46
S'sahara_plugins_mapr_versions_v4_0_1_mrv2_context.html'
p2043
sg48
S'sahara/plugins/mapr/versions/v4_0_1_mrv2/context'
p2044
sg50
g13
(g14
g15
NtRp2045
(dp2046
g18
I1
sg19
I8
sg20
I33
sg21
I0
sg22
I1
sg23
I10
sg24
I7
sbssg25
S'`L\x9c\x9a\xa5!\xb7\xee\xcd\n\xee\xb0?\xdb\x8bI'
p2047
ssS'sahara_plugins_mapr_base_base_cluster_configurer'
p2048
(dp2049
g6
(dp2050
g46
S'sahara_plugins_mapr_base_base_cluster_configurer.html'
p2051
sg48
S'sahara/plugins/mapr/base/base_cluster_configurer'
p2052
sg50
g13
(g14
g15
NtRp2053
(dp2054
g18
I1
sg19
I58
sg20
I229
sg21
I0
sg22
I0
sg23
I172
sg24
I56
sbssg25
S'\xd9C\x03\xe7\xacl+\xc1T\x8a\xb8\xc9v\x91s\xcb'
p2055
ssS'sahara_plugins_mapr_versions_mapr_spark_version_handler'
p2056
(dp2057
g6
(dp2058
g8
S'sahara_plugins_mapr_versions_mapr_spark_version_handler.html'
p2059
sg10
S'sahara/plugins/mapr/versions/mapr_spark/version_handler'
p2060
sg12
g13
(g14
g15
NtRp2061
(dp2062
g18
I1
sg19
I2
sg20
I25
sg21
I0
sg22
I0
sg23
I25
sg24
I2
sbssg25
S'\xb7\xc9\xe9Z\xce(.\xe8\x8a\xca\x16>&=\x1b\xa6'
p2063
ssS'sahara_plugins_mapr_versions_v4_0_2_mrv2_context'
p2064
(dp2065
g6
(dp2066
g46
S'sahara_plugins_mapr_versions_v4_0_2_mrv2_context.html'
p2067
sg48
S'sahara/plugins/mapr/versions/v4_0_2_mrv2/context'
p2068
sg50
g13
(g14
g15
NtRp2069
(dp2070
g18
I1
sg19
I8
sg20
I33
sg21
I0
sg22
I0
sg23
I33
sg24
I8
sbssg25
S'W\x07\xe4\x148V\x9c\xb9\x9d+|\xf6\x02\xa9\xb6V'
p2071
ssS'sahara_plugins_mapr_abstract_version_handler'
p2072
(dp2073
g6
(dp2074
g8
S'sahara_plugins_mapr_abstract_version_handler.html'
p2075
sg10
S'sahara/plugins/mapr/abstract/version_handler'
p2076
sg12
g13
(g14
g15
NtRp2077
(dp2078
g18
I1
sg19
I2
sg20
I35
sg21
I0
sg22
I0
sg23
I15
sg24
I0
sbssg25
S"\xa8\xe9\xcb\xf3\xc2\xabb\n\xbf]'7\x14#\x8d\\"
p2079
ssS'sahara_topology_topology_helper'
p2080
(dp2081
g6
(dp2082
g8
S'sahara_topology_topology_helper.html'
p2083
sg10
S'sahara/topology/topology_helper'
p2084
sg12
g13
(g14
g15
NtRp2085
(dp2086
g18
I1
sg19
I24
sg20
I80
sg21
I0
sg22
I3
sg23
I21
sg24
I8
sbssg25
S'G\xa5\x83\xf7\xfb\x89\xe7]\x19\xcb\xff]\x93\xc0\xb0M'
p2087
ssS'sahara_service_edp_binary_retrievers___init__'
p2088
(dp2089
g6
(dp2090
g8
S'sahara_service_edp_binary_retrievers___init__.html'
p2091
sg10
S'sahara/service/edp/binary_retrievers/__init__'
p2092
sg12
g13
(g14
g15
NtRp2093
(dp2094
g18
I1
sg19
I0
sg20
I0
sg21
I0
sg22
I0
sg23
I0
sg24
I0
sbssg25
S'\x19g\xdfM\x1a\x019\xaf\x1baIeR\xe5u\xa7'
p2095
ssS'sahara_plugins_cdh_commands'
p2096
(dp2097
g6
(dp2098
g8
S'sahara_plugins_cdh_commands.html'
p2099
sg10
S'sahara/plugins/cdh/commands'
p2100
sg12
g13
(g14
g15
NtRp2101
(dp2102
g18
I1
sg19
I12
sg20
I60
sg21
I0
sg22
I0
sg23
I39
sg24
I12
sbssg25
S'F\xf5\xfa\xcb\x97\xa5\x00W\xf6G_(6\x02\x15A'
p2103
ssS'sahara_plugins_mapr_util_commands'
p2104
(dp2105
g6
(dp2106
g8
S'sahara_plugins_mapr_util_commands.html'
p2107
sg10
S'sahara/plugins/mapr/util/commands'
p2108
sg12
g13
(g14
g15
NtRp2109
(dp2110
g18
I1
sg19
I0
sg20
I8
sg21
I0
sg22
I0
sg23
I6
sg24
I0
sbssg25
S'\xe0\xfeT\xcb ~\xc3\xdf\x8d\x15i\x1a\xae\xd2-\x91'
p2111
ssS'sahara_service_validations_clusters'
p2112
(dp2113
g6
(dp2114
g8
S'sahara_service_validations_clusters.html'
p2115
sg10
S'sahara/service/validations/clusters'
p2116
sg12
g13
(g14
g15
NtRp2117
(dp2118
g18
I1
sg19
I24
sg20
I51
sg21
I0
sg22
I2
sg23
I2
sg24
I2
sbssg25
S'\x00y\x16\xcc\x8e\xe8OO^\xf4\t\xb0\xcd\x80\x13k'
p2119
ssS'sahara_utils_api'
p2120
(dp2121
g6
(dp2122
g46
S'sahara_utils_api.html'
p2123
sg48
S'sahara/utils/api'
p2124
sg50
g13
(g14
g15
NtRp2125
(dp2126
g18
I1
sg19
I38
sg20
I137
sg21
I0
sg22
I1
sg23
I87
sg24
I37
sbssg25
S'aL\x08\x14;\xb3\xbc\x18\\\xe4\xebu7\x8b[p'
p2127
ssS'sahara_plugins_mapr_versions_v3_1_1_version_handler'
p2128
(dp2129
g6
(dp2130
g8
S'sahara_plugins_mapr_versions_v3_1_1_version_handler.html'
p2131
sg10
S'sahara/plugins/mapr/versions/v3_1_1/version_handler'
p2132
sg12
g13
(g14
g15
NtRp2133
(dp2134
g18
I1
sg19
I2
sg20
I35
sg21
I0
sg22
I0
sg23
I35
sg24
I2
sbssg25
S'>\xd9\xad\xe0\xa1\xf4\xfb\x16\xbf0\x08\xa6\xf7\xa3\xad\xb4'
p2135
ssS'sahara_service_edp_oozie_oozie'
p2136
(dp2137
g6
(dp2138
g46
S'sahara_service_edp_oozie_oozie.html'
p2139
sg48
S'sahara/service/edp/oozie/oozie'
p2140
sg50
g13
(g14
g15
NtRp2141
(dp2142
g18
I1
sg19
I8
sg20
I62
sg21
I0
sg22
I0
sg23
I45
sg24
I8
sbssg25
S'6\xeeU\x84\xfd\xe05:\nf\xa6\x8e\xb4\xf4K\xbe'
p2143
ssS'sahara_plugins_mapr_services_spark_spark'
p2144
(dp2145
g6
(dp2146
g46
S'sahara_plugins_mapr_services_spark_spark.html'
p2147
sg48
S'sahara/plugins/mapr/services/spark/spark'
p2148
sg50
g13
(g14
g15
NtRp2149
(dp2150
g18
I1
sg19
I12
sg20
I99
sg21
I0
sg22
I0
sg23
I64
sg24
I10
sbssg25
S'\\\x99\x8b\x1d\xbd\xa7\xe1\xf7G\xa2\x1e\xcdZ\xc3\x84\xe2'
p2151
ssS'sahara_plugins_mapr_versions_v3_1_1_edp_engine'
p2152
(dp2153
g6
(dp2154
g8
S'sahara_plugins_mapr_versions_v3_1_1_edp_engine.html'
p2155
sg10
S'sahara/plugins/mapr/versions/v3_1_1/edp_engine'
p2156
sg12
g13
(g14
g15
NtRp2157
(dp2158
g18
I1
sg19
I0
sg20
I5
sg21
I0
sg22
I0
sg23
I5
sg24
I0
sbssg25
S'\xab\xf2)\xdb\x87\xa2\x994m\x93\x93\x19e\xed\xb5\xee'
p2159
ssS'sahara_utils_hashabledict'
p2160
(dp2161
g6
(dp2162
g46
S'sahara_utils_hashabledict.html'
p2163
sg48
S'sahara/utils/hashabledict'
p2164
sg50
g13
(g14
g15
NtRp2165
(dp2166
g18
I1
sg19
I0
sg20
I4
sg21
I0
sg22
I0
sg23
I0
sg24
I0
sbssg25
S'_\x13\xa0\x04\xd6a\xb6\xa1{\xa9gp\x84\x92*\xd6'
p2167
ssS'sahara_topology___init__'
p2168
(dp2169
g6
(dp2170
g8
S'sahara_topology___init__.html'
p2171
sg10
S'sahara/topology/__init__'
p2172
sg12
g13
(g14
g15
NtRp2173
(dp2174
g18
I1
sg19
I0
sg20
I0
sg21
I0
sg22
I0
sg23
I0
sg24
I0
sbssg25
S'\x19g\xdfM\x1a\x019\xaf\x1baIeR\xe5u\xa7'
p2175
ssS'sahara_db_templates_utils'
p2176
(dp2177
g6
(dp2178
g8
S'sahara_db_templates_utils.html'
p2179
sg10
S'sahara/db/templates/utils'
p2180
sg12
g13
(g14
g15
NtRp2181
(dp2182
g18
I1
sg19
I32
sg20
I54
sg21
I0
sg22
I1
sg23
I0
sg24
I1
sbssg25
S'\xa1\x11\x84\x16^\x94\xcd#\xd5\xaf}M2\x88\x04\x9b'
p2183
ssS'sahara_plugins_mapr_versions_v4_0_2_mrv2_version_handler'
p2184
(dp2185
g6
(dp2186
g8
S'sahara_plugins_mapr_versions_v4_0_2_mrv2_version_handler.html'
p2187
sg10
S'sahara/plugins/mapr/versions/v4_0_2_mrv2/version_handler'
p2188
sg12
g13
(g14
g15
NtRp2189
(dp2190
g18
I1
sg19
I0
sg20
I26
sg21
I0
sg22
I0
sg23
I26
sg24
I0
sbssg25
S'r\xf8%\xbeb\xcb\xe0\xe2\x94\xbd\xbc\xee\xb1\xa0Ig'
p2191
ssS'sahara_plugins_mapr_services_management___init__'
p2192
(dp2193
g6
(dp2194
g8
S'sahara_plugins_mapr_services_management___init__.html'
p2195
sg10
S'sahara/plugins/mapr/services/management/__init__'
p2196
sg12
g13
(g14
g15
NtRp2197
(dp2198
g18
I1
sg19
I0
sg20
I0
sg21
I0
sg22
I0
sg23
I0
sg24
I0
sbssg25
S'\x19g\xdfM\x1a\x019\xaf\x1baIeR\xe5u\xa7'
p2199
ssS'sahara_plugins_vanilla_hadoop2_config'
p2200
(dp2201
g6
(dp2202
g46
S'sahara_plugins_vanilla_hadoop2_config.html'
p2203
sg48
S'sahara/plugins/vanilla/hadoop2/config'
p2204
sg50
g13
(g14
g15
NtRp2205
(dp2206
g18
I1
sg19
I78
sg20
I209
sg21
I0
sg22
I0
sg23
I151
sg24
I74
sbssg25
S'\x80\xbe\x99\xeb\xde\xddf\x98\xde\xd5\x12m\xc0byL'
p2207
ssS'sahara_plugins_mapr_services_impala___init__'
p2208
(dp2209
g6
(dp2210
g8
S'sahara_plugins_mapr_services_impala___init__.html'
p2211
sg10
S'sahara/plugins/mapr/services/impala/__init__'
p2212
sg12
g13
(g14
g15
NtRp2213
(dp2214
g18
I1
sg19
I0
sg20
I0
sg21
I0
sg22
I0
sg23
I0
sg24
I0
sbssg25
S'\x19g\xdfM\x1a\x019\xaf\x1baIeR\xe5u\xa7'
p2215
ssS'sahara_plugins_cdh_client___init__'
p2216
(dp2217
g6
(dp2218
g8
S'sahara_plugins_cdh_client___init__.html'
p2219
sg10
S'sahara/plugins/cdh/client/__init__'
p2220
sg12
g13
(g14
g15
NtRp2221
(dp2222
g18
I1
sg19
I0
sg20
I0
sg21
I0
sg22
I0
sg23
I0
sg24
I0
sbssg25
S'\x19g\xdfM\x1a\x019\xaf\x1baIeR\xe5u\xa7'
p2223
ssS'sahara_plugins_mapr_services_hue___init__'
p2224
(dp2225
g6
(dp2226
g8
S'sahara_plugins_mapr_services_hue___init__.html'
p2227
sg10
S'sahara/plugins/mapr/services/hue/__init__'
p2228
sg12
g13
(g14
g15
NtRp2229
(dp2230
g18
I1
sg19
I0
sg20
I0
sg21
I0
sg22
I0
sg23
I0
sg24
I0
sbssg25
S'\x19g\xdfM\x1a\x019\xaf\x1baIeR\xe5u\xa7'
p2231
ssS'sahara_service_validations_base'
p2232
(dp2233
g6
(dp2234
g8
S'sahara_service_validations_base.html'
p2235
sg10
S'sahara/service/validations/base'
p2236
sg12
g13
(g14
g15
NtRp2237
(dp2238
g18
I1
sg19
I132
sg20
I216
sg21
I0
sg22
I7
sg23
I12
sg24
I11
sbssg25
S'\x1d\x04n\xb3\xd3R\x9cZ\x19\xd3\x06\xdc\x11x\xee\x1a'
p2239
ssS'sahara_plugins_cdh_v5_cloudera_utils'
p2240
(dp2241
g6
(dp2242
g8
S'sahara_plugins_cdh_v5_cloudera_utils.html'
p2243
sg10
S'sahara/plugins/cdh/v5/cloudera_utils'
p2244
sg12
g13
(g14
g15
NtRp2245
(dp2246
g18
I1
sg19
I36
sg20
I115
sg21
I0
sg22
I0
sg23
I81
sg24
I36
sbssg25
S'\x15\xde\x14o4\x83\xde<\x8a\x04\x97\xfdg\xa58\x05'
p2247
ssS'sahara_utils_hacking___init__'
p2248
(dp2249
g6
(dp2250
g8
S'sahara_utils_hacking___init__.html'
p2251
sg10
S'sahara/utils/hacking/__init__'
p2252
sg12
g13
(g14
g15
NtRp2253
(dp2254
g18
I1
sg19
I0
sg20
I0
sg21
I0
sg22
I0
sg23
I0
sg24
I0
sbssg25
S'\x19g\xdfM\x1a\x019\xaf\x1baIeR\xe5u\xa7'
p2255
ssS'sahara_utils_edp'
p2256
(dp2257
g6
(dp2258
g46
S'sahara_utils_edp.html'
p2259
sg48
S'sahara/utils/edp'
p2260
sg50
g13
(g14
g15
NtRp2261
(dp2262
g18
I1
sg19
I8
sg20
I50
sg21
I0
sg22
I0
sg23
I0
sg24
I0
sbssg25
S"\xc3}\x7f'(\x00\x92\xfc\xfb\xad\xa1\xd1\x90#\x9a\x9f"
p2263
ssS'sahara_plugins_mapr_util_maprfs_helper'
p2264
(dp2265
g6
(dp2266
g8
S'sahara_plugins_mapr_util_maprfs_helper.html'
p2267
sg10
S'sahara/plugins/mapr/util/maprfs_helper'
p2268
sg12
g13
(g14
g15
NtRp2269
(dp2270
g18
I1
sg19
I0
sg20
I27
sg21
I0
sg22
I0
sg23
I14
sg24
I0
sbssg25
S'\xeb\xac\xc7\xb2&\x87%\x9a\xf1\xb9\x10\xf5}\xeaV\x01'
p2271
ssS'sahara_api_middleware_auth_valid'
p2272
(dp2273
g6
(dp2274
g8
S'sahara_api_middleware_auth_valid.html'
p2275
sg10
S'sahara/api/middleware/auth_valid'
p2276
sg12
g13
(g14
g15
NtRp2277
(dp2278
g18
I1
sg19
I8
sg20
I29
sg21
I0
sg22
I0
sg23
I19
sg24
I8
sbssg25
S'\xc1&B\x97\x9d\x90s\xb4\x8dC\xa1\xe6D2\x8c\x17'
p2279
ssS'sahara_plugins_cdh_client_hosts'
p2280
(dp2281
g6
(dp2282
g8
S'sahara_plugins_cdh_client_hosts.html'
p2283
sg10
S'sahara/plugins/cdh/client/hosts'
p2284
sg12
g13
(g14
g15
NtRp2285
(dp2286
g18
I1
sg19
I0
sg20
I17
sg21
I0
sg22
I0
sg23
I6
sg24
I0
sbssg25
S'f\xdd\x90\x82\xdb\x16i/\x91\xfab\x7f\xbfD\xdf\x8c'
p2287
ssS'sahara_plugins_mapr_versions_v4_0_1_mrv1___init__'
p2288
(dp2289
g6
(dp2290
g8
S'sahara_plugins_mapr_versions_v4_0_1_mrv1___init__.html'
p2291
sg10
S'sahara/plugins/mapr/versions/v4_0_1_mrv1/__init__'
p2292
sg12
g13
(g14
g15
NtRp2293
(dp2294
g18
I1
sg19
I0
sg20
I0
sg21
I0
sg22
I0
sg23
I0
sg24
I0
sbssg25
S'\xe5P\x11)^\xf4>1D.\x0e\x0b\xa1\xf8[+'
p2295
ssS'sahara_utils_keymgr'
p2296
(dp2297
g6
(dp2298
g8
S'sahara_utils_keymgr.html'
p2299
sg10
S'sahara/utils/keymgr'
p2300
sg12
g13
(g14
g15
NtRp2301
(dp2302
g18
I1
sg19
I6
sg20
I29
sg21
I0
sg22
I1
sg23
I1
sg24
I1
sbssg25
S'\xb0\xfch\x97\xa9l\x06\x0f\xe2\xd1OL\x01\xc3`\xe4'
p2303
ssS'sahara_plugins_cdh_client_cms'
p2304
(dp2305
g6
(dp2306
g8
S'sahara_plugins_cdh_client_cms.html'
p2307
sg10
S'sahara/plugins/cdh/client/cms'
p2308
sg12
g13
(g14
g15
NtRp2309
(dp2310
g18
I1
sg19
I0
sg20
I13
sg21
I0
sg22
I0
sg23
I5
sg24
I0
sbssg25
S'\xc1U\xe6=~P\x05s\x19\xc4\x18p\xdc\x95m\xb1'
p2311
ssS'sahara_swift_swift_helper'
p2312
(dp2313
g6
(dp2314
g8
S'sahara_swift_swift_helper.html'
p2315
sg10
S'sahara/swift/swift_helper'
p2316
sg12
g13
(g14
g15
NtRp2317
(dp2318
g18
I1
sg19
I8
sg20
I31
sg21
I0
sg22
I0
sg23
I0
sg24
I0
sbssg25
S'\xf4K\xa4\xe9A\x9f\xc1\xaci\xd5\xfa\xc9W\x06z\x86'
p2319
ssS'sahara_plugins_mapr_versions_mapr_spark_spark_engine'
p2320
(dp2321
g6
(dp2322
g8
S'sahara_plugins_mapr_versions_mapr_spark_spark_engine.html'
p2323
sg10
S'sahara/plugins/mapr/versions/mapr_spark/spark_engine'
p2324
sg12
g13
(g14
g15
NtRp2325
(dp2326
g18
I1
sg19
I10
sg20
I62
sg21
I0
sg22
I0
sg23
I62
sg24
I10
sbssg25
S'QK\x7f\xe6\x11n\x0b\x106\xe4d\xef=}a/'
p2327
ssS'sahara_cli_sahara_engine'
p2328
(dp2329
g6
(dp2330
g8
S'sahara_cli_sahara_engine.html'
p2331
sg10
S'sahara/cli/sahara_engine'
p2332
sg12
g13
(g14
g15
NtRp2333
(dp2334
g18
I1
sg19
I2
sg20
I18
sg21
I0
sg22
I0
sg23
I18
sg24
I2
sbssg25
S'\th=\xb7\xc1\x9dG$K\xa7R!\x92\x8c\x8e+'
p2335
ssS'sahara_db_templates_api'
p2336
(dp2337
g6
(dp2338
g46
S'sahara_db_templates_api.html'
p2339
sg48
S'sahara/db/templates/api'
p2340
sg50
g13
(g14
g15
NtRp2341
(dp2342
g18
I1
sg19
I133
sg20
I348
sg21
I0
sg22
I16
sg23
I52
sg24
I32
sbssg25
S'}\xd8\x10YWl(\xbd$\xf5\xcd\xa3\xeb\xba\xe1\xd4'
p2343
ssS'sahara_service_validations_edp___init__'
p2344
(dp2345
g6
(dp2346
g8
S'sahara_service_validations_edp___init__.html'
p2347
sg10
S'sahara/service/validations/edp/__init__'
p2348
sg12
g13
(g14
g15
NtRp2349
(dp2350
g18
I1
sg19
I0
sg20
I0
sg21
I0
sg22
I0
sg23
I0
sg24
I0
sbssg25
S'\x19g\xdfM\x1a\x019\xaf\x1baIeR\xe5u\xa7'
p2351
ssS'sahara_service_heat_heat_engine'
p2352
(dp2353
g6
(dp2354
g46
S'sahara_service_heat_heat_engine.html'
p2355
sg48
S'sahara/service/heat/heat_engine'
p2356
sg50
g13
(g14
g15
NtRp2357
(dp2358
g18
I1
sg19
I36
sg20
I146
sg21
I0
sg22
I0
sg23
I146
sg24
I36
sbssg25
S'\xc5I\xf2OM\xcdZ\x104\x1f\xadu\x1ez\xe46'
p2359
ssS'sahara_plugins_mapr_services_mahout___init__'
p2360
(dp2361
g6
(dp2362
g8
S'sahara_plugins_mapr_services_mahout___init__.html'
p2363
sg10
S'sahara/plugins/mapr/services/mahout/__init__'
p2364
sg12
g13
(g14
g15
NtRp2365
(dp2366
g18
I1
sg19
I0
sg20
I0
sg21
I0
sg22
I0
sg23
I0
sg24
I0
sbssg25
S'\x19g\xdfM\x1a\x019\xaf\x1baIeR\xe5u\xa7'
p2367
ssS'sahara_service_edp_oozie_workflow_creator_base_workflow'
p2368
(dp2369
g6
(dp2370
g46
S'sahara_service_edp_oozie_workflow_creator_base_workflow.html'
p2371
sg48
S'sahara/service/edp/oozie/workflow_creator/base_workflow'
p2372
sg50
g13
(g14
g15
NtRp2373
(dp2374
g18
I1
sg19
I14
sg20
I42
sg21
I0
sg22
I1
sg23
I1
sg24
I1
sbssg25
S'%\xdfc2\x1a\x02\xa9\xd07\xd4\x16?\xa0\x95\x048'
p2375
ssS'sahara_service_edp_oozie___init__'
p2376
(dp2377
g6
(dp2378
g8
S'sahara_service_edp_oozie___init__.html'
p2379
sg10
S'sahara/service/edp/oozie/__init__'
p2380
sg12
g13
(g14
g15
NtRp2381
(dp2382
g18
I1
sg19
I0
sg20
I0
sg21
I0
sg22
I0
sg23
I0
sg24
I0
sbssg25
S'\x19g\xdfM\x1a\x019\xaf\x1baIeR\xe5u\xa7'
p2383
ssS'sahara_plugins_mapr_versions_v4_0_1_mrv2___init__'
p2384
(dp2385
g6
(dp2386
g8
S'sahara_plugins_mapr_versions_v4_0_1_mrv2___init__.html'
p2387
sg10
S'sahara/plugins/mapr/versions/v4_0_1_mrv2/__init__'
p2388
sg12
g13
(g14
g15
NtRp2389
(dp2390
g18
I1
sg19
I0
sg20
I0
sg21
I0
sg22
I0
sg23
I0
sg24
I0
sbssg25
S'\x19g\xdfM\x1a\x019\xaf\x1baIeR\xe5u\xa7'
p2391
ssS'sahara_plugins_mapr_services_hue_hue'
p2392
(dp2393
g6
(dp2394
g46
S'sahara_plugins_mapr_services_hue_hue.html'
p2395
sg48
S'sahara/plugins/mapr/services/hue/hue'
p2396
sg50
g13
(g14
g15
NtRp2397
(dp2398
g18
I1
sg19
I20
sg20
I108
sg21
I0
sg22
I0
sg23
I66
sg24
I18
sbssg25
S'I\xab>a(\x06\xb7|\x85j9\xe2\xb3\xeag\xd5'
p2399
ssS'sahara_plugins_mapr_abstract_node_manager'
p2400
(dp2401
g6
(dp2402
g8
S'sahara_plugins_mapr_abstract_node_manager.html'
p2403
sg10
S'sahara/plugins/mapr/abstract/node_manager'
p2404
sg12
g13
(g14
g15
NtRp2405
(dp2406
g18
I1
sg19
I2
sg20
I14
sg21
I0
sg22
I0
sg23
I4
sg24
I0
sbssg25
S'\xbax\xcb\xfd\xdfn\xce\x0e\xe1\xb5\xae\x1do\xaa}\xb7'
p2407
ssS'sahara_service_edp___init__'
p2408
(dp2409
g6
(dp2410
g8
S'sahara_service_edp___init__.html'
p2411
sg10
S'sahara/service/edp/__init__'
p2412
sg12
g13
(g14
g15
NtRp2413
(dp2414
g18
I1
sg19
I0
sg20
I0
sg21
I0
sg22
I0
sg23
I0
sg24
I0
sbssg25
S'\x19g\xdfM\x1a\x019\xaf\x1baIeR\xe5u\xa7'
p2415
ssS'sahara_plugins_mapr_services_hive_hive'
p2416
(dp2417
g6
(dp2418
g46
S'sahara_plugins_mapr_services_hive_hive.html'
p2419
sg48
S'sahara/plugins/mapr/services/hive/hive'
p2420
sg50
g13
(g14
g15
NtRp2421
(dp2422
g18
I1
sg19
I8
sg20
I60
sg21
I0
sg22
I0
sg23
I26
sg24
I4
sbssg25
S'\x1e\xf1j\xa1\xfdOmRu\xf1\xb9\x15\x96\xf8\xc3/'
p2423
ssS'sahara_plugins_vanilla_plugin'
p2424
(dp2425
g6
(dp2426
g46
S'sahara_plugins_vanilla_plugin.html'
p2427
sg48
S'sahara/plugins/vanilla/plugin'
p2428
sg50
g13
(g14
g15
NtRp2429
(dp2430
g18
I1
sg19
I4
sg20
I46
sg21
I0
sg22
I1
sg23
I9
sg24
I1
sbssg25
S'}sG\xe8\x90\x9a\xf3\xb2\xf3]2\xd8Y\xd2N\x91'
p2431
ssS'sahara_plugins_hdp_versions_version_2_0_6_services'
p2432
(dp2433
g6
(dp2434
g46
S'sahara_plugins_hdp_versions_version_2_0_6_services.html'
p2435
sg48
S'sahara/plugins/hdp/versions/version_2_0_6/services'
p2436
sg50
g13
(g14
g15
NtRp2437
(dp2438
g18
I1
sg19
I276
sg20
I655
sg21
I0
sg22
I43
sg23
I164
sg24
I115
sbssg25
S'\xd4\xb2\xb9\x87\x15\xdal\xa8\xa8C&\xb1Bx\x91\x13'
p2439
ssS'sahara_utils_tempfiles'
p2440
(dp2441
g6
(dp2442
g8
S'sahara_utils_tempfiles.html'
p2443
sg10
S'sahara/utils/tempfiles'
p2444
sg12
g13
(g14
g15
NtRp2445
(dp2446
g18
I1
sg19
I2
sg20
I16
sg21
I0
sg22
I1
sg23
I2
sg24
I1
sbssg25
S'x\xfc3\x8e\xe7\xc2\x82\x87Z\xfcx\xb9pR\x06K'
p2447
ssS'sahara_service_validations_plugins'
p2448
(dp2449
g6
(dp2450
g8
S'sahara_service_validations_plugins.html'
p2451
sg10
S'sahara/service/validations/plugins'
p2452
sg12
g13
(g14
g15
NtRp2453
(dp2454
g18
I1
sg19
I2
sg20
I7
sg21
I0
sg22
I0
sg23
I2
sg24
I2
sbssg25
S'Z\x1a\x86\xea\x9a\x17\xc4%\x85Z\x9f\x19\x8e>\xdf\x17'
p2455
ssS'sahara_api_v11'
p2456
(dp2457
g6
(dp2458
g8
S'sahara_api_v11.html'
p2459
sg10
S'sahara/api/v11'
p2460
sg12
g13
(g14
g15
NtRp2461
(dp2462
g18
I1
sg19
I2
sg20
I123
sg21
I0
sg22
I0
sg23
I38
sg24
I2
sbssg25
S'\xa4\xbc\xef\x89\x99\x17\xeb\xf2\x95)\xcf*\x93\xffq\x1c'
p2463
ssS'sahara_plugins_spark_edp_engine'
p2464
(dp2465
g6
(dp2466
g8
S'sahara_plugins_spark_edp_engine.html'
p2467
sg10
S'sahara/plugins/spark/edp_engine'
p2468
sg12
g13
(g14
g15
NtRp2469
(dp2470
g18
I1
sg19
I2
sg20
I11
sg21
I0
sg22
I0
sg23
I0
sg24
I0
sbssg25
S'\x9f\xef|\xf3\x11z\xd0\xddw\xa94\x16y\xb5~\xc7'
p2471
ssS'sahara_utils_files'
p2472
(dp2473
g6
(dp2474
g8
S'sahara_utils_files.html'
p2475
sg10
S'sahara/utils/files'
p2476
sg12
g13
(g14
g15
NtRp2477
(dp2478
g18
I1
sg19
I0
sg20
I5
sg21
I0
sg22
I0
sg23
I0
sg24
I0
sbssg25
S'C\x08\x87\xc9:\xad\xab5y\x0f1\xf0G\xcc\x0f\xf6'
p2479
ssS'sahara_plugins_vanilla_v2_6_0___init__'
p2480
(dp2481
g6
(dp2482
g8
S'sahara_plugins_vanilla_v2_6_0___init__.html'
p2483
sg10
S'sahara/plugins/vanilla/v2_6_0/__init__'
p2484
sg12
g13
(g14
g15
NtRp2485
(dp2486
g18
I1
sg19
I0
sg20
I0
sg21
I0
sg22
I0
sg23
I0
sg24
I0
sbssg25
S'\x19g\xdfM\x1a\x019\xaf\x1baIeR\xe5u\xa7'
p2487
ssS'sahara_plugins_cdh_cloudera_utils'
p2488
(dp2489
g6
(dp2490
g8
S'sahara_plugins_cdh_cloudera_utils.html'
p2491
sg10
S'sahara/plugins/cdh/cloudera_utils'
p2492
sg12
g13
(g14
g15
NtRp2493
(dp2494
g18
I1
sg19
I58
sg20
I166
sg21
I0
sg22
I6
sg23
I94
sg24
I44
sbssg25
S'r\x87&\x05e\x18C\xcfT\x0b!\xebk\xcf\xfc0'
p2495
ssS'sahara_service_edp_storm___init__'
p2496
(dp2497
g384
(dp2498
g46
S'sahara_service_edp_storm___init__.html'
p2499
sg48
S'sahara/service/edp/storm/__init__'
p2500
sg50
g13
(g14
g15
NtRp2501
(dp2502
g18
I1
sg19
I0
sg20
I0
sg21
I0
sg22
I0
sg23
I0
sg24
I0
sbssg390
S'\x19g\xdfM\x1a\x019\xaf\x1baIeR\xe5u\xa7'
p2503
ssS'sahara_utils_openstack_images'
p2504
(dp2505
g6
(dp2506
g8
S'sahara_utils_openstack_images.html'
p2507
sg10
S'sahara/utils/openstack/images'
p2508
sg12
g13
(g14
g15
NtRp2509
(dp2510
g18
I1
sg19
I18
sg20
I68
sg21
I0
sg22
I0
sg23
I35
sg24
I14
sbssg25
S'\x1d\x830\xd4[\xd6\xc5\xeb\xe6E=h?\xf7\xda\x92'
p2511
ssS'sahara_plugins_storm_plugin'
p2512
(dp2513
g6
(dp2514
g46
S'sahara_plugins_storm_plugin.html'
p2515
sg48
S'sahara/plugins/storm/plugin'
p2516
sg50
g13
(g14
g15
NtRp2517
(dp2518
g18
I1
sg19
I58
sg20
I173
sg21
I0
sg22
I0
sg23
I125
sg24
I58
sbssg25
S'?\x9c:\x9f\x07\x18\xeb@P\xe0\xac9;KP\xde'
p2519
ssS'sahara_plugins_mapr_base_base_node_manager'
p2520
(dp2521
g6
(dp2522
g46
S'sahara_plugins_mapr_base_base_node_manager.html'
p2523
sg48
S'sahara/plugins/mapr/base/base_node_manager'
p2524
sg50
g13
(g14
g15
NtRp2525
(dp2526
g18
I1
sg19
I19
sg20
I122
sg21
I0
sg22
I0
sg23
I81
sg24
I19
sbssg25
S'\x0f\xebo\x9b\xee\x1f/Z\xf9\x89x\xb1\xa3\xcb+5'
p2527
ssS'sahara_plugins_mapr_services_pig___init__'
p2528
(dp2529
g6
(dp2530
g8
S'sahara_plugins_mapr_services_pig___init__.html'
p2531
sg10
S'sahara/plugins/mapr/services/pig/__init__'
p2532
sg12
g13
(g14
g15
NtRp2533
(dp2534
g18
I1
sg19
I0
sg20
I0
sg21
I0
sg22
I0
sg23
I0
sg24
I0
sbssg25
S'\x19g\xdfM\x1a\x019\xaf\x1baIeR\xe5u\xa7'
p2535
ssS'sahara_utils_openstack_swift'
p2536
(dp2537
g6
(dp2538
g8
S'sahara_utils_openstack_swift.html'
p2539
sg10
S'sahara/utils/openstack/swift'
p2540
sg12
g13
(g14
g15
NtRp2541
(dp2542
g18
I1
sg19
I2
sg20
I17
sg21
I0
sg22
I0
sg23
I5
sg24
I2
sbssg25
S'\x15\x0e\xf075b\xc4J?G\xd3\x8e\x9db\x92\xfa'
p2543
ssS'sahara_plugins_mapr_versions_v3_1_1_context'
p2544
(dp2545
g6
(dp2546
g8
S'sahara_plugins_mapr_versions_v3_1_1_context.html'
p2547
sg10
S'sahara/plugins/mapr/versions/v3_1_1/context'
p2548
sg12
g13
(g14
g15
NtRp2549
(dp2550
g18
I1
sg19
I6
sg20
I31
sg21
I0
sg22
I0
sg23
I31
sg24
I6
sbssg25
S'\\5\xc4\xed\x0c\xa2\xb3\x08\xf9\x8f\xbc\x91\x05r\xd9\xeb'
p2551
ssS'sahara_plugins_hdp_versions_versionhandlerfactory'
p2552
(dp2553
g6
(dp2554
g8
S'sahara_plugins_hdp_versions_versionhandlerfactory.html'
p2555
sg10
S'sahara/plugins/hdp/versions/versionhandlerfactory'
p2556
sg12
g13
(g14
g15
NtRp2557
(dp2558
g18
I1
sg19
I4
sg20
I26
sg21
I0
sg22
I0
sg23
I0
sg24
I0
sbssg25
S'\x7f\n\x15\xbb\xc8\xdf\x0367\xf0hmd\x15\x1f\xd9'
p2559
ssS'sahara_plugins_mapr_versions_v4_0_2_mrv2___init__'
p2560
(dp2561
g6
(dp2562
g8
S'sahara_plugins_mapr_versions_v4_0_2_mrv2___init__.html'
p2563
sg10
S'sahara/plugins/mapr/versions/v4_0_2_mrv2/__init__'
p2564
sg12
g13
(g14
g15
NtRp2565
(dp2566
g18
I1
sg19
I0
sg20
I0
sg21
I0
sg22
I0
sg23
I0
sg24
I0
sbssg25
S'\xe5P\x11)^\xf4>1D.\x0e\x0b\xa1\xf8[+'
p2567
ssS'sahara_plugins_mapr_versions_v4_0_1_mrv1_version_handler'
p2568
(dp2569
g6
(dp2570
g8
S'sahara_plugins_mapr_versions_v4_0_1_mrv1_version_handler.html'
p2571
sg10
S'sahara/plugins/mapr/versions/v4_0_1_mrv1/version_handler'
p2572
sg12
g13
(g14
g15
NtRp2573
(dp2574
g18
I1
sg19
I0
sg20
I26
sg21
I0
sg22
I0
sg23
I26
sg24
I0
sbssg25
S'|w\x12n\xdf"\xa28\xd1\xff\x86\x18\xb4L\x1c\xc9'
p2575
ssS'sahara_service_volumes'
p2576
(dp2577
g6
(dp2578
g46
S'sahara_service_volumes.html'
p2579
sg48
S'sahara/service/volumes'
p2580
sg50
g13
(g14
g15
NtRp2581
(dp2582
g18
I1
sg19
I38
sg20
I136
sg21
I0
sg22
I4
sg23
I38
sg24
I18
sbssg25
S'6n\x1f\xab\xd4w&\xa8~\xf1\xfc`\xc5\xd1\x83 '
p2583
ssS'sahara_plugins_mapr_services_flume_flume'
p2584
(dp2585
g6
(dp2586
g8
S'sahara_plugins_mapr_services_flume_flume.html'
p2587
sg10
S'sahara/plugins/mapr/services/flume/flume'
p2588
sg12
g13
(g14
g15
NtRp2589
(dp2590
g18
I1
sg19
I2
sg20
I14
sg21
I0
sg22
I0
sg23
I0
sg24
I0
sbssg25
S'p\xa9\xdf\x88\x02(Q\xae\xc3\xd6[\xba\xd2\xe6_"'
p2591
ssS'sahara_plugins_storm_config_helper'
p2592
(dp2593
g6
(dp2594
g8
S'sahara_plugins_storm_config_helper.html'
p2595
sg10
S'sahara/plugins/storm/config_helper'
p2596
sg12
g13
(g14
g15
NtRp2597
(dp2598
g18
I1
sg19
I17
sg20
I51
sg21
I0
sg22
I0
sg23
I34
sg24
I17
sbssg25
S'\x8e\xd5w\xe8/\x11B\xc7\xd4\xa4\x12\x05\x91\xd1\x05\xf3'
p2599
ssS'sahara_plugins_vanilla_v2_4_1_config_helper'
p2600
(dp2601
g6
(dp2602
g8
S'sahara_plugins_vanilla_v2_4_1_config_helper.html'
p2603
sg10
S'sahara/plugins/vanilla/v2_4_1/config_helper'
p2604
sg12
g13
(g14
g15
NtRp2605
(dp2606
g18
I1
sg19
I0
sg20
I30
sg21
I0
sg22
I0
sg23
I1
sg24
I0
sbssg25
S'0hi\xafpB/\x80\xd0\x04\xec\xd8\x85 <H'
p2607
ssS'sahara_plugins_cdh_db_helper'
p2608
(dp2609
g6
(dp2610
g46
S'sahara_plugins_cdh_db_helper.html'
p2611
sg48
S'sahara/plugins/cdh/db_helper'
p2612
sg50
g13
(g14
g15
NtRp2613
(dp2614
g18
I1
sg19
I2
sg20
I24
sg21
I0
sg22
I0
sg23
I16
sg24
I2
sbssg25
S'\x15"\x89W]\xe0\x97\xe7\x86\xc09\xca\x8as\xca\x10'
p2615
ssS'sahara_plugins_vanilla_confighints_helper'
p2616
(dp2617
g384
(dp2618
g46
S'sahara_plugins_vanilla_confighints_helper.html'
p2619
sg48
S'sahara/plugins/vanilla/confighints_helper'
p2620
sg50
g13
(g14
g15
NtRp2621
(dp2622
g18
I1
sg19
I0
sg20
I12
sg21
I0
sg22
I0
sg23
I0
sg24
I0
sbssg390
S'\xdc\xc2\n\xdc\t\xb1}V`\tCL\x16\x88\x17\x9d'
p2623
ssS'sahara_service_direct_engine'
p2624
(dp2625
g6
(dp2626
g46
S'sahara_service_direct_engine.html'
p2627
sg48
S'sahara/service/direct_engine'
p2628
sg50
g13
(g14
g15
NtRp2629
(dp2630
g18
I1
sg19
I146
sg20
I343
sg21
I0
sg22
I15
sg23
I187
sg24
I103
sbssg25
S'R`:\xc9\xec\xf9F\xf7>\xbdC\xf1\x0b;\xb8\x80'
p2631
ssS'sahara_plugins_mapr_versions_v4_0_2_mrv1_context'
p2632
(dp2633
g6
(dp2634
g8
S'sahara_plugins_mapr_versions_v4_0_2_mrv1_context.html'
p2635
sg10
S'sahara/plugins/mapr/versions/v4_0_2_mrv1/context'
p2636
sg12
g13
(g14
g15
NtRp2637
(dp2638
g18
I1
sg19
I4
sg20
I24
sg21
I0
sg22
I0
sg23
I24
sg24
I4
sbssg25
S"L\x8apw\xd8\xa5\xe4\xed'd\x98\x83UN\xcdK"
p2639
ssS'sahara_utils_ssh_remote'
p2640
(dp2641
g6
(dp2642
g46
S'sahara_utils_ssh_remote.html'
p2643
sg48
S'sahara/utils/ssh_remote'
p2644
sg50
g13
(g14
g15
NtRp2645
(dp2646
g18
I1
sg19
I92
sg20
I469
sg21
I0
sg22
I7
sg23
I251
sg24
I61
sbssg25
S"a\x8b\xe8y\x04(\xa4\xbb\x92'\xf3\xa9\r\x1b\xa4("
p2647
ssS'sahara_db___init__'
p2648
(dp2649
g6
(dp2650
g8
S'sahara_db___init__.html'
p2651
sg10
S'sahara/db/__init__'
p2652
sg12
g13
(g14
g15
NtRp2653
(dp2654
g18
I1
sg19
I0
sg20
I2
sg21
I0
sg22
I0
sg23
I0
sg24
I0
sbssg25
S'\xabT\x84\x82\x87\xe4\xf0x\xa58"\xec\xe6P\xe3~'
p2655
ssS'sahara_plugins_vanilla_hadoop2_oozie_helper'
p2656
(dp2657
g6
(dp2658
g8
S'sahara_plugins_vanilla_hadoop2_oozie_helper.html'
p2659
sg10
S'sahara/plugins/vanilla/hadoop2/oozie_helper'
p2660
sg12
g13
(g14
g15
NtRp2661
(dp2662
g18
I1
sg19
I0
sg20
I4
sg21
I0
sg22
I0
sg23
I2
sg24
I0
sbssg25
S'\x0c(\x87\xc44\x80 \x10\xba%\xfe\xe0X\xde\x0e\x80'
p2663
ssS'sahara_plugins_mapr_services___init__'
p2664
(dp2665
g6
(dp2666
g8
S'sahara_plugins_mapr_services___init__.html'
p2667
sg10
S'sahara/plugins/mapr/services/__init__'
p2668
sg12
g13
(g14
g15
NtRp2669
(dp2670
g18
I1
sg19
I0
sg20
I0
sg21
I0
sg22
I0
sg23
I0
sg24
I0
sbssg25
S'\x19g\xdfM\x1a\x019\xaf\x1baIeR\xe5u\xa7'
p2671
ssS'sahara_utils_rpc'
p2672
(dp2673
g6
(dp2674
g8
S'sahara_utils_rpc.html'
p2675
sg10
S'sahara/utils/rpc'
p2676
sg12
g13
(g14
g15
NtRp2677
(dp2678
g18
I1
sg19
I2
sg20
I51
sg21
I0
sg22
I1
sg23
I15
sg24
I1
sbssg25
S'\x17\xaa\xb2\x8b\xa0\x18;` \xe2\xe9\xd0\x02\xaf\x1e\x12'
p2679
ssS'sahara_service_edp_api'
p2680
(dp2681
g6
(dp2682
g46
S'sahara_service_edp_api.html'
p2683
sg48
S'sahara/service/edp/api'
p2684
sg50
g13
(g14
g15
NtRp2685
(dp2686
g18
I1
sg19
I20
sg20
I116
sg21
I0
sg22
I2
sg23
I21
sg24
I4
sbssg25
S'\xfb\r\x93\xd9\xb1\x8b\xdb=\\6\x1b\xb8Qb\xd5\x11'
p2687
ssS'sahara_plugins_spark___init__'
p2688
(dp2689
g6
(dp2690
g8
S'sahara_plugins_spark___init__.html'
p2691
sg10
S'sahara/plugins/spark/__init__'
p2692
sg12
g13
(g14
g15
NtRp2693
(dp2694
g18
I1
sg19
I0
sg20
I0
sg21
I0
sg22
I0
sg23
I0
sg24
I0
sbssg25
S'\x19g\xdfM\x1a\x019\xaf\x1baIeR\xe5u\xa7'
p2695
ssS'sahara_plugins_cdh_plugin_utils'
p2696
(dp2697
g6
(dp2698
g46
S'sahara_plugins_cdh_plugin_utils.html'
p2699
sg48
S'sahara/plugins/cdh/plugin_utils'
p2700
sg50
g13
(g14
g15
NtRp2701
(dp2702
g18
I1
sg19
I30
sg20
I159
sg21
I0
sg22
I0
sg23
I102
sg24
I30
sbssg25
S'\x9f\xceq\xd74i4-h9\x06r\x9eZ_Z'
p2703
ssS'sahara_plugins_mapr_versions_v4_0_2_mrv1___init__'
p2704
(dp2705
g6
(dp2706
g8
S'sahara_plugins_mapr_versions_v4_0_2_mrv1___init__.html'
p2707
sg10
S'sahara/plugins/mapr/versions/v4_0_2_mrv1/__init__'
p2708
sg12
g13
(g14
g15
NtRp2709
(dp2710
g18
I1
sg19
I0
sg20
I0
sg21
I0
sg22
I0
sg23
I0
sg24
I0
sbssg25
S'\xe5P\x11)^\xf4>1D.\x0e\x0b\xa1\xf8[+'
p2711
ssS'sahara_utils_general'
p2712
(dp2713
g6
(dp2714
g46
S'sahara_utils_general.html'
p2715
sg48
S'sahara/utils/general'
p2716
sg50
g13
(g14
g15
NtRp2717
(dp2718
g18
I1
sg19
I36
sg20
I85
sg21
I0
sg22
I0
sg23
I0
sg24
I0
sbssg25
S'\x9d\xa3\xf5\xff\x1b\x844B\x02\x04\x1f\xc4\x93\xbf\xa9\xc2'
p2719
sssS'version'
p2720
S'3.7.1'
p2721
sS'settings'
p2722
S'\xaf\xa4\xfbi\x0f\xab\x81\xbe\xc1\xe8\xc5\xa2%\x01\xe6G'
p2723
sS'format'
p2724
I1
s.